(lp0
I5000
aI3
aI16
aI20
aF0.1
aI30
a(lp1
cnumpy.core.multiarray
_reconstruct
p2
(cnumpy
ndarray
p3
(I0
tp4
S'b'
p5
tp6
Rp7
(I1
(I3
tp8
cnumpy
dtype
p9
(S'f8'
p10
I0
I1
tp11
Rp12
(I3
S'<'
p13
NNNI-1
I-1
I0
tp14
bI00
S'\x9a\xef\xe1(\xba\x0eB@.\xfeQ\x96d\x8bA@\x10\x1e\xb7\x0f\xd6\xf8N@'
p15
tp16
bag2
(g3
(I0
tp17
g5
tp18
Rp19
(I1
(I3
tp20
g12
I00
S"0_\x1d\xc1\x9e\xc4A@\xd9|1\xb7|\x94A@\xda\x04\x82\xd2'\xf9N@"
p21
tp22
bag2
(g3
(I0
tp23
g5
tp24
Rp25
(I1
(I3
tp26
g12
I00
S'eg\x8df\xaa\xb6A@t\xa5\xb3\x86\xdd\xd7A@M\xdcW\x11\x1b\xe2N@'
p27
tp28
bag2
(g3
(I0
tp29
g5
tp30
Rp31
(I1
(I3
tp32
g12
I00
S'\xb8q\xb7I\xfe\xc4A@\xd7\xc2\xd4\xae\x17\rB@\xbc1\xf9\xa5E\xbdN@'
p33
tp34
bag2
(g3
(I0
tp35
g5
tp36
Rp37
(I1
(I3
tp38
g12
I00
S"'\xc1o\xf2^\xaaA@\x89\xac\xbcN\xc9\xd5A@\xdc~u\xb7\xd2\xa1N@"
p39
tp40
bag2
(g3
(I0
tp41
g5
tp42
Rp43
(I1
(I3
tp44
g12
I00
S'p\x92\x1b\xf9\xbd\xd1A@>\x88\x0b\xdc\xdf\x9cA@DJ~<;\xafN@'
p45
tp46
bag2
(g3
(I0
tp47
g5
tp48
Rp49
(I1
(I3
tp50
g12
I00
S'\xabp\x8a\xeb[\x00B@\xcdX\x85\xc4\xb0\xc9A@\xaa\xc2WN\xe4\xc4N@'
p51
tp52
bag2
(g3
(I0
tp53
g5
tp54
Rp55
(I1
(I3
tp56
g12
I00
S'\x9cD\x86e\xbe:B@\xb4K\xa0\x9bF\xd0A@\xa5\x16O\xdb\xa5\xa0N@'
p57
tp58
bag2
(g3
(I0
tp59
g5
tp60
Rp61
(I1
(I3
tp62
g12
I00
S"'\xf4\x85\xd4E\tB@\xf8R\xe94\xf5\xc0A@\xe9\xfa\xbc\x1f\xd2nN@"
p63
tp64
bag2
(g3
(I0
tp65
g5
tp66
Rp67
(I1
(I3
tp68
g12
I00
S'Q\xcf\xa4b\x1f\xd7A@K\xf0li\xb7\xddA@`@\x1b\x8fZDN@'
p69
tp70
bag2
(g3
(I0
tp71
g5
tp72
Rp73
(I1
(I3
tp74
g12
I00
S'\xe0\x7f+\xd8n\x07B@\x0eZD\xe0Z\x04B@uvpl\x12:N@'
p75
tp76
bag2
(g3
(I0
tp77
g5
tp78
Rp79
(I1
(I3
tp80
g12
I00
S'\xa3\xb8k\xd1\xf3LB@\x90F}\xf4?\xfbA@N\xc2Dl\xb0DN@'
p81
tp82
bag2
(g3
(I0
tp83
g5
tp84
Rp85
(I1
(I3
tp86
g12
I00
S'\xf2a\t\xe2\x1bKB@\xad:\x05\x15~ B@\x9e\xa7(\xb7\xf7\rN@'
p87
tp88
bag2
(g3
(I0
tp89
g5
tp90
Rp91
(I1
(I3
tp92
g12
I00
S'\x88\xe7\xe8\xdb\xb4*B@C\xcb\xc2gm\x1bB@Q\xaf\xfdb\xaa\xcaM@'
p93
tp94
bag2
(g3
(I0
tp95
g5
tp96
Rp97
(I1
(I3
tp98
g12
I00
S'\xaf{:\x80i\xf5A@\x84\x84z*\xc5<B@i!\xd7\x10\x86\xa6M@'
p99
tp100
bag2
(g3
(I0
tp101
g5
tp102
Rp103
(I1
(I3
tp104
g12
I00
S'\xf3 w\xb1\r\xb6A@\x98tj\x1a\x17aB@\x90\xbb~\xba\x83\x8dM@'
p105
tp106
baa(lp107
g2
(g3
(I0
tp108
g5
tp109
Rp110
(I1
(I3
tp111
g12
I00
S'\x9a\xef\xe1(\xba\x0eB@.\xfeQ\x96d\x8bA@\x10\x1e\xb7\x0f\xd6\xf8N@'
p112
tp113
bag2
(g3
(I0
tp114
g5
tp115
Rp116
(I1
(I3
tp117
g12
I00
S'\xd0\x86R\xb0\xff\xd8A@r\xa9/\xd2\xa3\x93A@\x18=\x1e\\|\xf8N@'
p118
tp119
bag2
(g3
(I0
tp120
g5
tp121
Rp122
(I1
(I3
tp123
g12
I00
S'}b\x1d3\xc1\xbeA@\xc6h\n\x1f\x11\xb7A@^\xba\xcb\xce\x01\xedN@'
p124
tp125
bag2
(g3
(I0
tp126
g5
tp127
Rp128
(I1
(I3
tp129
g12
I00
S"\xc9;i\xa0\\\xbbA@&\x05\x0b'\xa4\xe6A@\x8f@;_\xdc\xd6N@"
p130
tp131
bag2
(g3
(I0
tp132
g5
tp133
Rp134
(I1
(I3
tp135
g12
I00
S'\xfb\xe8x\xb1\n\xc0A@\xd6p\x88\xc0\xfa\x01B@J\xb6\x7f\x1b\xfc\xb9N@'
p136
tp137
bag2
(g3
(I0
tp138
g5
tp139
Rp140
(I1
(I3
tp141
g12
I00
S'4\x11UR\xfa\xadA@\x0f\xd8R\xff\x13\xd8A@\xa6\xd6V\xc7\x85\xa4N@'
p142
tp143
bag2
(g3
(I0
tp144
g5
tp145
Rp146
(I1
(I3
tp147
g12
I00
S'8\xae8~D\xc8A@\xdf\xa8p\xb8\xe2\xadA@\xfc\xd3\x05\x084\xacN@'
p148
tp149
bag2
(g3
(I0
tp150
g5
tp151
Rp152
(I1
(I3
tp153
g12
I00
S'\x01\xc7f\xa6\x05\xecA@xx\x94\x9ci\xb6A@@\xe6\x18\x82V\xbaN@'
p154
tp155
bag2
(g3
(I0
tp156
g5
tp157
Rp158
(I1
(I3
tp159
g12
I00
S'\xaf\xdc\xb33)\x15B@\xad\x83\xe6V\x14\xcbA@\x00\xafu\xf3/\xb6N@'
p160
tp161
bag2
(g3
(I0
tp162
g5
tp163
Rp164
(I1
(I3
tp165
g12
I00
S'd\x0b\xb7W)/B@\nH>\x85\r\xcdA@\x92B\xe2\x98\xfc\x97N@'
p166
tp167
bag2
(g3
(I0
tp168
g5
tp169
Rp170
(I1
(I3
tp171
g12
I00
S'X\x91\xd2I4\x0cB@\xa7\xba\xd4\x07s\xc3A@*rG\xa1\x0frN@'
p172
tp173
bag2
(g3
(I0
tp174
g5
tp175
Rp176
(I1
(I3
tp177
g12
I00
S'\xcf\xc3\xa0A\xfc\xe7A@\xcb\xdbD\xba\t\xd6A@\x90\xc5|\x918QN@'
p178
tp179
bag2
(g3
(I0
tp180
g5
tp181
Rp182
(I1
(I3
tp183
g12
I00
S'q\xb7\x88\x03\x05\xf4A@ok\x0f\x19\x91\xf2A@\xdf\xcd\xbe\x9bv?N@'
p184
tp185
bag2
(g3
(I0
tp186
g5
tp187
Rp188
(I1
(I3
tp189
g12
I00
S'\xda\xbb\xed\x00\x9a"B@\x9c\xd4P\x93*\x00B@\xfc\x1a\x08\x84\x15>N@'
p190
tp191
bag2
(g3
(I0
tp192
g5
tp193
Rp194
(I1
(I3
tp195
g12
I00
S'\xda\xb5\x0f\xd7dJB@\xf0\xcc\xa6\xa2\xd7\x03B@\x08\x0f\xe83\n8N@'
p196
tp197
bag2
(g3
(I0
tp198
g5
tp199
Rp200
(I1
(I3
tp201
g12
I00
S'|\xc5\xf2\x1e\x18IB@\xb2\xa0\x01\xb0\xa9\x1eB@T\xc2\x13D\xd6\x0bN@'
p202
tp203
bag2
(g3
(I0
tp204
g5
tp205
Rp206
(I1
(I3
tp207
g12
I00
S'm\x9b\xc6q\x871B@\x81\xb2\xf5\x9f\x99\x1dB@\xa0\xf1\x83\xcb\xd0\xdaM@'
p208
tp209
bag2
(g3
(I0
tp210
g5
tp211
Rp212
(I1
(I3
tp213
g12
I00
S'\xb0\xe5\x9e\xc1\x0f\x0eB@G:\x08z\x97-B@M\xd6ID\x02\xb8M@'
p214
tp215
bag2
(g3
(I0
tp216
g5
tp217
Rp218
(I1
(I3
tp219
g12
I00
S'\xca\x02\x15\xf5\x8b\xe3A@\x84\xb1w*\xf2FB@B\xfaB{\xd3\x9fM@'
p220
tp221
bag2
(g3
(I0
tp222
g5
tp223
Rp224
(I1
(I3
tp225
g12
I00
S'\xf3 w\xb1\r\xb6A@\x98tj\x1a\x17aB@\x90\xbb~\xba\x83\x8dM@'
p226
tp227
baa(lp228
cnumpy.core.multiarray
scalar
p229
(g12
S'\xa3e\xdb\xf2\x11\x1c\xf0?'
p230
tp231
Rp232
ag229
(g12
S'\x12h\xb4\x85\x9c\xea\xe6?'
p233
tp234
Rp235
ag229
(g12
S'\x00\x16|*\xd0\x07\xdd?'
p236
tp237
Rp238
ag229
(g12
S'\xbd\xa1\x83!\xb00\xd6?'
p239
tp240
Rp241
ag229
(g12
S'\xa6x\xad\xa8c\xf7\xd8?'
p242
tp243
Rp244
ag229
(g12
S'\xdb\xfb\x7fC\x17\xcc\xd9?'
p245
tp246
Rp247
ag229
(g12
S'\x88\xd6:V\xcc^\xd2?'
p248
tp249
Rp250
ag229
(g12
S'\xb9\xec\xfaC\xa0Y\xc9?'
p251
tp252
Rp253
ag229
(g12
S'\xcd\xad\xfe\x04\xa5\xa1\xc5?'
p254
tp255
Rp256
ag229
(g12
S'\xac\xbe\xbd{5b\xc0?'
p257
tp258
Rp259
ag229
(g12
S'|\x10\xd8E\xab\xf0\xbd?'
p260
tp261
Rp262
ag229
(g12
S'C\x88^.\x14\xe9\xb8?'
p263
tp264
Rp265
ag229
(g12
S'\x10\x1eaB\x05\xc3\xb6?'
p266
tp267
Rp268
ag229
(g12
S'\xd6C\xa40v\xde\xb6?'
p269
tp270
Rp271
ag229
(g12
S'\x90jqv\x01a\xb3?'
p272
tp273
Rp274
ag229
(g12
S'\x10*\xdf\xec\x03\x81\xae?'
p275
tp276
Rp277
ag229
(g12
S'\xccg\xd6QU2\xa4?'
p278
tp279
Rp280
ag229
(g12
S'*\t\x174\x12\xe3\xa2?'
p281
tp282
Rp283
ag229
(g12
S'&\xb8A\x07\x8d\x8c\xa1?'
p284
tp285
Rp286
ag229
(g12
S'XX@Lf\xca\x99?'
p287
tp288
Rp289
ag229
(g12
S'$\xd4\xdbh\xdf\xce\x9c?'
p290
tp291
Rp292
ag229
(g12
S'\x15\xca\xf1\x8c\x9c\xae\xa4?'
p293
tp294
Rp295
ag229
(g12
S'd+,Z3\xb1\xa4?'
p296
tp297
Rp298
ag229
(g12
S'\xa4\x12K\x1b\xfd\x7f\xa7?'
p299
tp300
Rp301
ag229
(g12
S'\x0f\x01\xadR\x0e\x0c\xa3?'
p302
tp303
Rp304
ag229
(g12
S'\xa9\xab\xbd(\xab\xcf\xa4?'
p305
tp306
Rp307
ag229
(g12
S'\x86\xe9\xa8\xce}\xe2\x9f?'
p308
tp309
Rp310
ag229
(g12
S'\xc8GV\xde@\xa7\x9d?'
p311
tp312
Rp313
ag229
(g12
S'\t\x1b\xa7x\x98\xa5\x99?'
p314
tp315
Rp316
ag229
(g12
S'#\xb2V:\xe9L\x97?'
p317
tp318
Rp319
aa(lp320
F1.7162519142960801
aF1.6832380139831815
aF1.505741495237042
aF1.4448703199414041
aF1.4516372624030478
aF1.4866744432821408
aF1.4502777151091575
aF2.110684659878377
aF1.8152647534334145
aF1.8028701026148528
aF1.9622328044730588
aF2.0123598990515292
aF2.3565329371685886
aF2.6569416696300734
aF1.595656254693366
aF1.0865820180230614
aa(lp321
(lp322
I409
aI431
aI434
aI483
aI499
aI510
aI518
aI536
aI542
aI572
aI733
aI749
aI760
aI768
aI786
aI792
aI822
aI1000
aI1037
aI1041
aI1052
aI1059
aI1061
aI1074
aI1217
aI1226
aI1239
aI1240
aI1255
aI1256
aI1258
aI1259
aI1262
aI1267
aI1286
aI1289
aI1291
aI1293
aI1302
aI1303
aI1304
aI1305
aI1306
aI1307
aI1308
aI1310
aI1311
aI1312
aI1316
aI1390
aI1392
aI1400
aI1401
aI1402
aI1403
aI1404
aI1411
aI1412
aI1413
aI1420
aI1424
aI1430
aI1432
aI1436
aI1437
aI1441
aI1445
aI1450
aI1462
aI1479
aI1480
aI1483
aI1484
aI1486
aI1491
aI1494
aI1496
aI1499
aI1500
aI1509
aI1512
aI1516
aI1517
aI1518
aI1519
aI1521
aI1522
aI1524
aI1526
aI1528
aI1529
aI1531
aI1533
aI1537
aI1538
aI1545
aI1549
aI1550
aI1551
aI1987
aI1992
aI1994
aI1995
aI1996
aI1997
aI2000
aI2001
aI2002
aI2005
aI2032
aI2191
aI2199
aI2212
aI2219
aI2231
aI2259
aI2362
aI2398
aI2441
aI2541
aI2554
aI2555
aI2556
aI2558
aI2573
aI2574
aI2576
aI2579
aI2597
aI2599
aI2602
aI2605
aI2608
aI2620
aI2632
aI2634
aI2635
aI2648
aI2649
aI2650
aI2651
aI2653
aI2662
aI2664
aI2668
aI2669
aI2675
aI2679
aI2681
aI2682
aI2683
aI2684
aI2687
aI2688
aI2691
aI2709
aI2711
aI2715
aI2716
aI2720
aI2721
aI2722
aI2723
aI2731
aI2741
aI2743
aI2744
aI2746
aI2750
aI2751
aI2752
aI2753
aI2758
aI2759
aI2762
aI2763
aI2764
aI2765
aI2766
aI2767
aI2768
aI2774
aI2785
aI2788
aI2789
aI2790
aI2794
aI2798
aI2801
aI2803
aI2804
aI2805
aI2809
aI2812
aI2818
aI2829
aI2830
aI2834
aI2837
aI2839
aI2842
aI2843
aI2846
aI2847
aI2848
aI2851
aI2852
aI2853
aI2856
aI2860
aI2868
aI2871
aI2872
aI2876
aI2885
aI2888
aI2890
aI2893
aI2896
aI2914
aI2919
aI2926
aI2927
aI2930
aI2939
aI2940
aI2941
aI2943
aI2944
aI2947
aI2949
aI2966
aI2971
aI2972
aI2974
aI2976
aI2977
aI2979
aI2980
aI2981
aI2983
aI2987
aI2988
aI2989
aI2990
aI2991
aI2992
aI2993
aI2998
aI2999
aI3001
aI3003
aI3004
aI3006
aI3007
aI3011
aI3012
aI3013
aI3014
aI3015
aI3016
aI3021
aI3025
aI3026
aI3030
aI3037
aI3038
aI3039
aI3040
aI3041
aI3042
aI3044
aI3049
aI3050
aI3051
aI3052
aI3053
aI3055
aI3071
aI3219
aI3522
aa(lp323
I187
aI250
aI381
aI383
aI388
aI395
aI396
aI399
aI404
aI406
aI411
aI425
aI427
aI433
aI436
aI461
aI522
aI531
aI533
aI535
aI539
aI540
aI543
aI544
aI574
aI593
aI596
aI597
aI598
aI619
aI703
aI772
aI781
aI783
aI785
aI789
aI790
aI793
aI794
aI824
aI843
aI846
aI847
aI848
aI869
aI953
aI999
aI1011
aI1044
aI1045
aI1063
aI1065
aI1066
aI1080
aI1104
aI1254
aI1260
aI1292
aI1313
aI1314
aI1318
aI1329
aI1330
aI1332
aI1333
aI1341
aI1354
aI1364
aI1367
aI1380
aI1391
aI1397
aI1398
aI1449
aI1497
aI1520
aI1530
aI1532
aI1539
aI1924
aI1972
aI1975
aI2055
aI2112
aI2214
aI2221
aI2253
aI2269
aI2275
aI2276
aI2278
aI2281
aI2311
aI2324
aI2345
aI2378
aI2437
aI2501
aI2515
aI2527
aI2528
aI2529
aI2530
aI2535
aI2536
aI2540
aI2547
aI2550
aI2559
aI2561
aI2566
aI2567
aI2569
aI2590
aI2598
aI2601
aI2603
aI2606
aI2609
aI2611
aI2613
aI2614
aI2618
aI2619
aI2621
aI2622
aI2623
aI2626
aI2630
aI2641
aI2645
aI2646
aI2647
aI2652
aI2708
aI2718
aI2724
aI2725
aI2727
aI2730
aI2732
aI2735
aI2736
aI2760
aI2761
aI2771
aI2781
aI2786
aI2791
aI2795
aI2797
aI2806
aI2807
aI2808
aI2814
aI2815
aI2816
aI2819
aI2820
aI2840
aI2849
aI2850
aI2854
aI2857
aI2858
aI2859
aI2862
aI2869
aI2873
aI2879
aI2880
aI2884
aI2887
aI2891
aI2892
aI2895
aI2898
aI2900
aI2901
aI2902
aI2903
aI2904
aI2905
aI2906
aI2907
aI2908
aI2910
aI2912
aI2918
aI2920
aI2922
aI2923
aI2924
aI2925
aI2928
aI2929
aI2931
aI2932
aI2934
aI2936
aI2942
aI2945
aI2946
aI2948
aI2950
aI2951
aI2952
aI2953
aI2954
aI2955
aI2956
aI2957
aI2958
aI2959
aI2960
aI2961
aI2962
aI2963
aI2964
aI2965
aI2967
aI2968
aI2969
aI2970
aI2973
aI2975
aI2984
aI2985
aI2994
aI2996
aI2997
aI3000
aI3002
aI3005
aI3008
aI3009
aI3017
aI3018
aI3019
aI3022
aI3023
aI3024
aI3027
aI3032
aI3034
aI3045
aI3047
aI3048
aI3056
aI3061
aI3089
aI3102
aI3104
aI3117
aI3118
aI3119
aI3126
aI3127
aI3128
aI3133
aI3148
aI3156
aI3163
aI3168
aI3175
aI3177
aI3186
aI3188
aI3189
aI3191
aI3194
aI3197
aI3202
aI3203
aI3204
aI3210
aI3213
aI3218
aI3222
aI3230
aI3241
aI3244
aI3245
aI3246
aI3248
aI3265
aI3367
aI3370
aI3377
aI3385
aI3472
aI3475
aI3477
aI3482
aI3487
aI3499
aI3504
aa(lp324
I4
aI9
aI16
aI17
aI18
aI35
aI44
aI46
aI63
aI70
aI97
aI107
aI124
aI133
aI157
aI159
aI160
aI163
aI170
aI171
aI176
aI179
aI182
aI183
aI192
aI204
aI205
aI206
aI208
aI210
aI211
aI239
aI246
aI252
aI269
aI272
aI273
aI274
aI276
aI277
aI279
aI281
aI284
aI285
aI297
aI303
aI306
aI312
aI313
aI324
aI352
aI363
aI376
aI377
aI378
aI379
aI384
aI385
aI386
aI387
aI400
aI401
aI402
aI403
aI408
aI412
aI415
aI417
aI422
aI467
aI469
aI541
aI545
aI547
aI548
aI549
aI550
aI552
aI554
aI562
aI567
aI569
aI570
aI591
aI594
aI595
aI603
aI606
aI610
aI612
aI618
aI623
aI687
aI688
aI706
aI709
aI712
aI713
aI714
aI717
aI719
aI791
aI795
aI797
aI798
aI799
aI800
aI802
aI804
aI812
aI817
aI819
aI820
aI841
aI844
aI845
aI853
aI856
aI860
aI862
aI868
aI873
aI937
aI938
aI956
aI959
aI962
aI963
aI964
aI966
aI968
aI973
aI977
aI984
aI986
aI996
aI997
aI998
aI1012
aI1057
aI1062
aI1067
aI1068
aI1276
aI1278
aI1279
aI1282
aI1319
aI1326
aI1328
aI1363
aI1374
aI1378
aI1382
aI1388
aI1416
aI1461
aI1508
aI1971
aI1979
aI1985
aI1986
aI2010
aI2011
aI2014
aI2017
aI2019
aI2025
aI2026
aI2031
aI2044
aI2046
aI2047
aI2050
aI2052
aI2077
aI2078
aI2079
aI2086
aI2105
aI2111
aI2134
aI2148
aI2150
aI2151
aI2155
aI2160
aI2165
aI2167
aI2170
aI2171
aI2194
aI2211
aI2215
aI2217
aI2234
aI2235
aI2240
aI2251
aI2265
aI2279
aI2312
aI2322
aI2328
aI2329
aI2333
aI2334
aI2343
aI2347
aI2348
aI2351
aI2352
aI2355
aI2443
aI2446
aI2447
aI2457
aI2498
aI2499
aI2503
aI2504
aI2506
aI2509
aI2510
aI2511
aI2513
aI2514
aI2516
aI2518
aI2520
aI2524
aI2525
aI2526
aI2531
aI2532
aI2533
aI2538
aI2545
aI2548
aI2571
aI2578
aI2580
aI2592
aI2610
aI2617
aI2714
aI2734
aI2778
aI2779
aI2782
aI2784
aI2810
aI2813
aI2861
aI2875
aI2878
aI2882
aI2883
aI2889
aI2913
aI2916
aI3010
aI3020
aI3028
aI3031
aI3033
aI3046
aI3054
aI3057
aI3058
aI3063
aI3066
aI3069
aI3070
aI3072
aI3073
aI3076
aI3078
aI3079
aI3080
aI3081
aI3082
aI3084
aI3085
aI3086
aI3087
aI3088
aI3090
aI3091
aI3094
aI3095
aI3096
aI3098
aI3099
aI3100
aI3101
aI3103
aI3105
aI3106
aI3107
aI3110
aI3113
aI3115
aI3120
aI3121
aI3122
aI3125
aI3129
aI3130
aI3134
aI3135
aI3136
aI3139
aI3140
aI3141
aI3142
aI3144
aI3147
aI3149
aI3150
aI3151
aI3152
aI3153
aI3155
aI3157
aI3159
aI3160
aI3161
aI3162
aI3165
aI3169
aI3171
aI3173
aI3174
aI3176
aI3182
aI3184
aI3190
aI3193
aI3199
aI3205
aI3206
aI3208
aI3209
aI3211
aI3212
aI3223
aI3224
aI3225
aI3226
aI3227
aI3228
aI3233
aI3234
aI3235
aI3238
aI3247
aI3250
aI3253
aI3257
aI3258
aI3262
aI3273
aI3274
aI3281
aI3283
aI3294
aI3305
aI3315
aI3318
aI3327
aI3331
aI3333
aI3334
aI3335
aI3336
aI3337
aI3338
aI3340
aI3345
aI3346
aI3348
aI3357
aI3364
aI3368
aI3369
aI3384
aI3389
aI3397
aI3398
aI3400
aI3402
aI3406
aI3407
aI3414
aI3415
aI3420
aI3426
aI3474
aI3500
aa(lp325
I0
aI2
aI3
aI5
aI6
aI8
aI10
aI11
aI13
aI14
aI15
aI19
aI20
aI21
aI22
aI23
aI24
aI25
aI26
aI27
aI28
aI29
aI30
aI31
aI32
aI33
aI34
aI36
aI37
aI38
aI39
aI40
aI41
aI42
aI45
aI47
aI50
aI51
aI52
aI56
aI57
aI58
aI59
aI60
aI62
aI64
aI65
aI66
aI67
aI68
aI69
aI71
aI72
aI73
aI74
aI75
aI76
aI77
aI78
aI79
aI80
aI81
aI82
aI83
aI84
aI85
aI87
aI88
aI89
aI90
aI91
aI92
aI93
aI94
aI95
aI96
aI98
aI99
aI101
aI102
aI103
aI104
aI106
aI108
aI109
aI110
aI111
aI114
aI115
aI116
aI117
aI118
aI119
aI120
aI121
aI122
aI123
aI125
aI126
aI127
aI128
aI130
aI131
aI132
aI134
aI135
aI136
aI137
aI138
aI139
aI140
aI141
aI142
aI145
aI146
aI147
aI148
aI149
aI150
aI151
aI152
aI153
aI154
aI155
aI156
aI161
aI164
aI165
aI166
aI169
aI172
aI178
aI181
aI188
aI189
aI190
aI193
aI194
aI195
aI197
aI198
aI201
aI202
aI203
aI207
aI209
aI213
aI215
aI218
aI219
aI220
aI221
aI222
aI223
aI224
aI225
aI226
aI227
aI228
aI229
aI230
aI231
aI232
aI233
aI234
aI235
aI236
aI237
aI238
aI240
aI241
aI242
aI244
aI245
aI247
aI248
aI256
aI260
aI261
aI262
aI263
aI265
aI266
aI267
aI270
aI278
aI288
aI290
aI292
aI293
aI294
aI295
aI300
aI301
aI302
aI307
aI309
aI314
aI315
aI323
aI325
aI331
aI341
aI343
aI345
aI347
aI350
aI351
aI356
aI357
aI358
aI359
aI360
aI362
aI364
aI365
aI366
aI367
aI368
aI369
aI370
aI380
aI394
aI421
aI445
aI446
aI449
aI472
aI473
aI476
aI538
aI546
aI551
aI553
aI555
aI556
aI557
aI559
aI560
aI564
aI587
aI617
aI622
aI627
aI631
aI632
aI634
aI640
aI682
aI684
aI695
aI708
aI722
aI723
aI726
aI788
aI796
aI801
aI803
aI805
aI806
aI807
aI809
aI810
aI814
aI837
aI867
aI872
aI877
aI881
aI882
aI884
aI890
aI932
aI934
aI945
aI958
aI965
aI974
aI975
aI979
aI980
aI1145
aI1265
aI1281
aI1283
aI1344
aI1349
aI1352
aI1359
aI1365
aI1366
aI1861
aI1966
aI1980
aI2003
aI2022
aI2023
aI2024
aI2028
aI2029
aI2030
aI2033
aI2035
aI2042
aI2048
aI2063
aI2071
aI2087
aI2092
aI2093
aI2094
aI2095
aI2096
aI2100
aI2103
aI2104
aI2106
aI2109
aI2110
aI2114
aI2116
aI2128
aI2163
aI2166
aI2168
aI2169
aI2177
aI2180
aI2181
aI2183
aI2184
aI2185
aI2186
aI2207
aI2209
aI2222
aI2230
aI2232
aI2237
aI2238
aI2243
aI2248
aI2254
aI2266
aI2318
aI2332
aI2335
aI2336
aI2339
aI2344
aI2346
aI2350
aI2353
aI2354
aI2356
aI2357
aI2358
aI2359
aI2364
aI2366
aI2406
aI2425
aI2429
aI2450
aI2497
aI2521
aI2523
aI2543
aI2585
aI2935
aI3059
aI3060
aI3064
aI3065
aI3067
aI3074
aI3075
aI3092
aI3093
aI3109
aI3123
aI3124
aI3132
aI3145
aI3154
aI3179
aI3180
aI3243
aI3256
aI3260
aI3267
aI3268
aI3269
aI3270
aI3272
aI3277
aI3278
aI3279
aI3280
aI3282
aI3290
aI3291
aI3292
aI3295
aI3298
aI3299
aI3302
aI3303
aI3309
aI3311
aI3314
aI3316
aI3317
aI3322
aI3324
aI3325
aI3326
aI3329
aI3330
aI3350
aI3353
aI3405
aI3419
aI3422
aI3423
aI3427
aI3428
aI3429
aI3432
aI3435
aI3436
aI3442
aI3443
aI3454
aI3455
aI3458
aI3488
aI3491
aI3498
aI3509
aI3523
aI3541
aa(lp326
I12
aI100
aI158
aI243
aI255
aI257
aI258
aI259
aI264
aI268
aI271
aI282
aI283
aI286
aI287
aI289
aI291
aI298
aI299
aI304
aI305
aI320
aI326
aI327
aI328
aI332
aI333
aI334
aI335
aI336
aI337
aI338
aI339
aI340
aI342
aI344
aI348
aI349
aI353
aI354
aI355
aI361
aI372
aI373
aI375
aI382
aI413
aI414
aI418
aI420
aI423
aI437
aI440
aI442
aI443
aI447
aI448
aI450
aI456
aI457
aI458
aI459
aI460
aI466
aI468
aI471
aI475
aI491
aI529
aI563
aI573
aI575
aI577
aI580
aI585
aI589
aI602
aI604
aI607
aI608
aI611
aI614
aI615
aI616
aI620
aI621
aI625
aI626
aI635
aI648
aI656
aI657
aI658
aI660
aI662
aI663
aI664
aI667
aI668
aI670
aI672
aI673
aI674
aI675
aI677
aI678
aI680
aI681
aI683
aI685
aI686
aI690
aI691
aI693
aI697
aI699
aI701
aI707
aI711
aI716
aI718
aI721
aI725
aI741
aI779
aI813
aI823
aI825
aI827
aI830
aI835
aI839
aI852
aI854
aI857
aI858
aI861
aI864
aI865
aI866
aI870
aI871
aI875
aI876
aI885
aI898
aI906
aI907
aI908
aI910
aI912
aI913
aI914
aI917
aI918
aI920
aI922
aI923
aI924
aI925
aI927
aI928
aI930
aI931
aI933
aI935
aI936
aI940
aI941
aI943
aI947
aI949
aI951
aI957
aI961
aI969
aI970
aI971
aI972
aI976
aI978
aI981
aI983
aI985
aI987
aI990
aI992
aI994
aI1038
aI1043
aI1047
aI1050
aI1051
aI1105
aI1148
aI1231
aI1238
aI1243
aI1249
aI1251
aI1268
aI1284
aI1323
aI1324
aI1325
aI1339
aI1340
aI1343
aI1355
aI1370
aI1377
aI1384
aI1389
aI1503
aI1559
aI1560
aI1734
aI1738
aI1754
aI1814
aI1926
aI1946
aI1954
aI2004
aI2009
aI2013
aI2016
aI2021
aI2027
aI2034
aI2036
aI2043
aI2045
aI2049
aI2051
aI2060
aI2062
aI2064
aI2067
aI2070
aI2074
aI2075
aI2081
aI2083
aI2084
aI2088
aI2089
aI2090
aI2091
aI2098
aI2102
aI2107
aI2108
aI2115
aI2119
aI2121
aI2130
aI2131
aI2132
aI2133
aI2135
aI2136
aI2137
aI2138
aI2139
aI2140
aI2141
aI2142
aI2143
aI2144
aI2147
aI2149
aI2153
aI2174
aI2192
aI2205
aI2208
aI2263
aI2290
aI2314
aI2315
aI2321
aI2323
aI2325
aI2331
aI2337
aI2338
aI2340
aI2341
aI2342
aI2349
aI2361
aI2363
aI2368
aI2369
aI2372
aI2379
aI2401
aI2442
aI2455
aI2456
aI2459
aI2460
aI2507
aI2508
aI2512
aI2517
aI2522
aI2587
aI2865
aI3108
aI3111
aI3112
aI3114
aI3131
aI3137
aI3138
aI3143
aI3146
aI3158
aI3164
aI3166
aI3167
aI3170
aI3172
aI3178
aI3187
aI3192
aI3198
aI3201
aI3207
aI3215
aI3216
aI3217
aI3220
aI3221
aI3231
aI3237
aI3239
aI3240
aI3242
aI3252
aI3261
aI3263
aI3264
aI3266
aI3271
aI3275
aI3276
aI3285
aI3286
aI3287
aI3288
aI3289
aI3296
aI3297
aI3306
aI3307
aI3308
aI3310
aI3312
aI3313
aI3319
aI3320
aI3321
aI3323
aI3328
aI3332
aI3341
aI3347
aI3349
aI3351
aI3352
aI3354
aI3355
aI3356
aI3358
aI3359
aI3360
aI3361
aI3362
aI3363
aI3365
aI3371
aI3372
aI3373
aI3374
aI3375
aI3376
aI3378
aI3379
aI3380
aI3381
aI3382
aI3383
aI3387
aI3388
aI3390
aI3391
aI3392
aI3393
aI3394
aI3395
aI3410
aI3413
aI3416
aI3417
aI3430
aI3437
aI3439
aI3441
aI3448
aI3451
aI3459
aI3460
aI3466
aI3476
aI3478
aI3479
aI3483
aI3484
aI3489
aI3490
aI3492
aI3496
aI3502
aI3503
aI3506
aI3507
aI3508
aI3510
aI3512
aI3514
aI3516
aI3520
aI3521
aI3575
aI3664
aa(lp327
I61
aI174
aI185
aI191
aI275
aI280
aI330
aI346
aI374
aI391
aI397
aI398
aI407
aI410
aI416
aI419
aI426
aI430
aI432
aI435
aI441
aI444
aI451
aI453
aI454
aI455
aI462
aI463
aI464
aI465
aI470
aI477
aI479
aI481
aI484
aI485
aI489
aI490
aI493
aI494
aI495
aI496
aI497
aI498
aI500
aI501
aI504
aI505
aI506
aI507
aI509
aI511
aI512
aI513
aI514
aI515
aI516
aI517
aI519
aI520
aI521
aI523
aI524
aI525
aI526
aI527
aI528
aI530
aI532
aI534
aI537
aI558
aI565
aI566
aI568
aI581
aI582
aI583
aI584
aI586
aI588
aI590
aI592
aI599
aI605
aI629
aI630
aI636
aI637
aI639
aI646
aI659
aI671
aI676
aI679
aI692
aI698
aI715
aI720
aI727
aI729
aI731
aI734
aI735
aI739
aI740
aI743
aI744
aI745
aI746
aI747
aI748
aI750
aI751
aI754
aI755
aI756
aI757
aI759
aI761
aI762
aI763
aI764
aI765
aI766
aI767
aI769
aI770
aI771
aI773
aI774
aI775
aI776
aI777
aI778
aI780
aI782
aI784
aI787
aI808
aI815
aI816
aI818
aI831
aI832
aI833
aI834
aI836
aI838
aI840
aI842
aI849
aI855
aI879
aI880
aI886
aI887
aI889
aI896
aI909
aI921
aI926
aI929
aI942
aI948
aI967
aI982
aI989
aI991
aI993
aI1001
aI1007
aI1008
aI1009
aI1010
aI1013
aI1014
aI1036
aI1039
aI1040
aI1042
aI1048
aI1049
aI1053
aI1055
aI1056
aI1070
aI1072
aI1073
aI1075
aI1076
aI1077
aI1095
aI1100
aI1103
aI1106
aI1107
aI1110
aI1112
aI1115
aI1129
aI1211
aI1212
aI1214
aI1215
aI1216
aI1218
aI1219
aI1220
aI1221
aI1222
aI1223
aI1224
aI1225
aI1228
aI1229
aI1230
aI1232
aI1233
aI1234
aI1235
aI1236
aI1237
aI1241
aI1242
aI1244
aI1245
aI1246
aI1247
aI1248
aI1253
aI1261
aI1269
aI1270
aI1271
aI1277
aI1280
aI1290
aI1296
aI1300
aI1317
aI1320
aI1321
aI1335
aI1336
aI1337
aI1338
aI1342
aI1350
aI1351
aI1353
aI1358
aI1368
aI1369
aI1373
aI1375
aI1376
aI1379
aI1381
aI1387
aI1393
aI1394
aI1396
aI1422
aI1426
aI1434
aI1440
aI1444
aI1452
aI1467
aI1477
aI1481
aI1482
aI1487
aI1493
aI1507
aI1515
aI1548
aI1552
aI1554
aI1555
aI1556
aI1811
aI1815
aI1897
aI1929
aI1963
aI1973
aI1983
aI1984
aI1999
aI2006
aI2018
aI2039
aI2040
aI2053
aI2058
aI2059
aI2065
aI2068
aI2069
aI2076
aI2082
aI2085
aI2101
aI2117
aI2118
aI2120
aI2122
aI2123
aI2125
aI2126
aI2145
aI2146
aI2152
aI2157
aI2159
aI2225
aI2250
aI2261
aI2300
aI2320
aI2367
aI2370
aI2399
aI2439
aI2448
aI2449
aI2452
aI2454
aI2458
aI2461
aI2463
aI2505
aI2519
aI2537
aI2546
aI2551
aI2552
aI2557
aI2562
aI2563
aI2582
aI2594
aI2595
aI2596
aI2607
aI2612
aI2616
aI2625
aI2627
aI2637
aI2640
aI2643
aI2671
aI2726
aI2729
aI2769
aI2770
aI2775
aI2777
aI2811
aI2855
aI2877
aI2894
aI2897
aI2899
aI2909
aI2911
aI2917
aI2921
aI3116
aI3185
aI3196
aI3232
aI3236
aI3249
aI3251
aI3304
aI3342
aI3343
aI3344
aI3366
aI3386
aI3396
aI3399
aI3401
aI3404
aI3418
aI3431
aI3434
aI3444
aI3445
aI3462
aI3469
aI3470
aI3471
aI3473
aI3480
aI3481
aI3485
aI3493
aI3494
aI3495
aI3497
aI3505
aI3511
aI3513
aI3515
aI3517
aI3518
aI3577
aI3598
aa(lp328
I7
aI43
aI48
aI49
aI53
aI54
aI55
aI86
aI105
aI112
aI113
aI129
aI143
aI162
aI167
aI173
aI177
aI180
aI184
aI186
aI196
aI199
aI200
aI212
aI214
aI216
aI217
aI249
aI251
aI253
aI254
aI296
aI308
aI310
aI311
aI316
aI317
aI318
aI319
aI321
aI329
aI371
aI389
aI390
aI393
aI405
aI428
aI429
aI439
aI474
aI478
aI502
aI503
aI508
aI561
aI571
aI576
aI600
aI601
aI609
aI624
aI628
aI633
aI647
aI651
aI653
aI654
aI661
aI666
aI694
aI700
aI704
aI705
aI710
aI724
aI728
aI752
aI753
aI758
aI811
aI821
aI826
aI850
aI851
aI859
aI874
aI878
aI883
aI897
aI901
aI903
aI904
aI911
aI916
aI944
aI950
aI954
aI955
aI960
aI995
aI1002
aI1003
aI1004
aI1005
aI1006
aI1046
aI1058
aI1060
aI1064
aI1069
aI1071
aI1078
aI1079
aI1084
aI1087
aI1121
aI1176
aI1213
aI1250
aI1252
aI1257
aI1263
aI1264
aI1266
aI1272
aI1273
aI1274
aI1285
aI1287
aI1288
aI1294
aI1295
aI1297
aI1298
aI1299
aI1301
aI1309
aI1315
aI1322
aI1327
aI1331
aI1345
aI1346
aI1347
aI1348
aI1356
aI1357
aI1360
aI1362
aI1371
aI1372
aI1383
aI1385
aI1386
aI1395
aI1399
aI1405
aI1406
aI1407
aI1408
aI1409
aI1414
aI1415
aI1417
aI1418
aI1419
aI1425
aI1427
aI1431
aI1438
aI1442
aI1446
aI1447
aI1448
aI1451
aI1453
aI1454
aI1455
aI1456
aI1457
aI1459
aI1460
aI1463
aI1464
aI1466
aI1468
aI1473
aI1475
aI1476
aI1478
aI1485
aI1489
aI1490
aI1492
aI1498
aI1502
aI1504
aI1505
aI1506
aI1510
aI1523
aI1535
aI1540
aI1544
aI1546
aI1547
aI1553
aI1557
aI1558
aI1960
aI1965
aI1974
aI1976
aI1977
aI1981
aI1982
aI1988
aI1998
aI2007
aI2008
aI2012
aI2015
aI2020
aI2037
aI2038
aI2054
aI2056
aI2072
aI2073
aI2080
aI2097
aI2113
aI2124
aI2127
aI2154
aI2156
aI2158
aI2162
aI2164
aI2172
aI2173
aI2175
aI2178
aI2179
aI2182
aI2187
aI2188
aI2189
aI2190
aI2193
aI2195
aI2196
aI2197
aI2198
aI2200
aI2201
aI2204
aI2210
aI2213
aI2216
aI2218
aI2220
aI2226
aI2227
aI2228
aI2229
aI2233
aI2236
aI2239
aI2241
aI2242
aI2244
aI2246
aI2247
aI2249
aI2252
aI2255
aI2256
aI2257
aI2260
aI2262
aI2264
aI2274
aI2277
aI2280
aI2282
aI2283
aI2292
aI2293
aI2295
aI2298
aI2299
aI2301
aI2304
aI2310
aI2313
aI2317
aI2319
aI2326
aI2327
aI2330
aI2360
aI2371
aI2373
aI2387
aI2400
aI2424
aI2427
aI2430
aI2431
aI2434
aI2435
aI2436
aI2438
aI2440
aI2444
aI2451
aI2453
aI2462
aI2495
aI2500
aI2502
aI2534
aI2539
aI2542
aI2544
aI2549
aI2553
aI2564
aI2565
aI2568
aI2570
aI2575
aI2577
aI2581
aI2583
aI2584
aI2586
aI2589
aI2591
aI2593
aI2600
aI2604
aI2615
aI2624
aI2628
aI2633
aI2636
aI2638
aI2644
aI2657
aI2667
aI2674
aI2677
aI2686
aI2694
aI2699
aI2710
aI2712
aI2713
aI2719
aI2728
aI2733
aI2737
aI2738
aI2739
aI2740
aI2742
aI2745
aI2747
aI2748
aI2749
aI2754
aI2755
aI2756
aI2772
aI2773
aI2776
aI2780
aI2783
aI2787
aI2792
aI2793
aI2796
aI2799
aI2800
aI2817
aI2836
aI2838
aI2841
aI2844
aI2845
aI2866
aI2867
aI2870
aI2874
aI2881
aI2886
aI2915
aI2933
aI2937
aI2938
aI2978
aI2982
aI2986
aI2995
aI3029
aI3035
aI3036
aI3043
aI3062
aI3068
aI3077
aI3083
aI3097
aI3181
aI3183
aI3195
aI3200
aI3214
aI3229
aI3255
aI3259
aI3300
aI3339
aI3403
aI3411
aI3412
aI3421
aI3424
aI3425
aI3440
aI3447
aI3465
aI3468
aI3486
aI3501
aI3519
aI3766
aa(lp329
I1
aI144
aI168
aI652
aI902
aI1019
aI1020
aI1023
aI1024
aI1026
aI1028
aI1029
aI1030
aI1031
aI1033
aI1035
aI1054
aI1081
aI1151
aI1177
aI1197
aI1198
aI1361
aI1421
aI1423
aI1428
aI1429
aI1433
aI1439
aI1443
aI1458
aI1465
aI1471
aI1488
aI1495
aI1501
aI1511
aI1513
aI1514
aI1525
aI1527
aI1534
aI1536
aI1541
aI1542
aI1543
aI1642
aI1645
aI1652
aI1668
aI1670
aI1795
aI1797
aI1806
aI1810
aI1978
aI1990
aI1993
aI2223
aI2224
aI2245
aI2267
aI2268
aI2270
aI2272
aI2273
aI2296
aI2297
aI2303
aI2305
aI2380
aI2389
aI2407
aI2409
aI2411
aI2417
aI2418
aI2419
aI2420
aI2423
aI2432
aI2464
aI2481
aI2485
aI2491
aI2496
aI2560
aI2588
aI2639
aI2642
aI2654
aI2655
aI2656
aI2658
aI2659
aI2660
aI2661
aI2663
aI2665
aI2670
aI2672
aI2673
aI2676
aI2678
aI2680
aI2685
aI2689
aI2690
aI2692
aI2695
aI2696
aI2698
aI2700
aI2701
aI2702
aI2703
aI2704
aI2706
aI2707
aI2717
aI2802
aI2821
aI2822
aI2823
aI2824
aI2825
aI2826
aI2827
aI2828
aI2831
aI2832
aI2833
aI2863
aI2864
aI3449
aI3547
aI3548
aI3549
aI3550
aI3686
aI3690
aI3701
aI3702
aI3729
aI3774
aa(lp330
I392
aI424
aI438
aI480
aI482
aI486
aI487
aI488
aI492
aI578
aI613
aI641
aI643
aI644
aI645
aI649
aI650
aI655
aI665
aI669
aI689
aI696
aI730
aI732
aI736
aI737
aI738
aI742
aI828
aI863
aI891
aI893
aI894
aI895
aI899
aI900
aI905
aI915
aI919
aI939
aI946
aI988
aI1015
aI1017
aI1018
aI1082
aI1085
aI1086
aI1088
aI1090
aI1091
aI1092
aI1093
aI1094
aI1096
aI1097
aI1098
aI1099
aI1101
aI1102
aI1108
aI1113
aI1114
aI1117
aI1120
aI1122
aI1125
aI1127
aI1130
aI1135
aI1139
aI1141
aI1142
aI1143
aI1144
aI1147
aI1149
aI1150
aI1152
aI1153
aI1161
aI1162
aI1163
aI1175
aI1178
aI1180
aI1182
aI1183
aI1184
aI1185
aI1186
aI1187
aI1188
aI1190
aI1191
aI1195
aI1196
aI1199
aI1201
aI1202
aI1204
aI1205
aI1206
aI1208
aI1209
aI1210
aI1227
aI1275
aI1334
aI1410
aI1435
aI1470
aI1472
aI1561
aI1562
aI1563
aI1567
aI1568
aI1569
aI1571
aI1572
aI1576
aI1577
aI1578
aI1580
aI1582
aI1586
aI1587
aI1618
aI1620
aI1623
aI1625
aI1635
aI1640
aI1641
aI1643
aI1646
aI1650
aI1651
aI1656
aI1662
aI1664
aI1667
aI1672
aI1674
aI1710
aI1761
aI1781
aI1794
aI1798
aI1800
aI1801
aI1802
aI1803
aI1807
aI1808
aI1813
aI1820
aI1853
aI1888
aI1902
aI1905
aI1907
aI1911
aI1919
aI1920
aI1921
aI1925
aI1933
aI1939
aI1947
aI1961
aI1962
aI1964
aI1968
aI1989
aI2041
aI2057
aI2061
aI2129
aI2161
aI2202
aI2203
aI2206
aI2258
aI2271
aI2285
aI2286
aI2306
aI2374
aI2376
aI2382
aI2385
aI2388
aI2396
aI2397
aI2416
aI2426
aI2428
aI2433
aI2469
aI2470
aI2471
aI2472
aI2473
aI2475
aI2476
aI2479
aI2482
aI2494
aI2572
aI2629
aI2631
aI2697
aI2757
aI3254
aI3284
aI3293
aI3408
aI3438
aI3446
aI3461
aI3546
aI3551
aI3573
aI3574
aI3576
aI3602
aI3682
aI3733
aI3740
aI3749
aI3763
aI3772
aI3780
aI3782
aI3783
aI3784
aa(lp331
I175
aI452
aI579
aI702
aI829
aI952
aI1089
aI1109
aI1111
aI1116
aI1118
aI1119
aI1123
aI1124
aI1126
aI1128
aI1131
aI1132
aI1133
aI1134
aI1136
aI1137
aI1138
aI1140
aI1158
aI1164
aI1165
aI1166
aI1168
aI1170
aI1173
aI1174
aI1179
aI1192
aI1194
aI1574
aI1581
aI1592
aI1594
aI1596
aI1597
aI1602
aI1603
aI1604
aI1607
aI1626
aI1627
aI1628
aI1629
aI1631
aI1633
aI1637
aI1638
aI1639
aI1657
aI1682
aI1683
aI1684
aI1686
aI1687
aI1688
aI1689
aI1690
aI1694
aI1695
aI1696
aI1697
aI1698
aI1700
aI1701
aI1702
aI1703
aI1704
aI1706
aI1707
aI1708
aI1709
aI1711
aI1712
aI1713
aI1714
aI1715
aI1716
aI1717
aI1718
aI1719
aI1720
aI1721
aI1722
aI1723
aI1724
aI1725
aI1727
aI1728
aI1729
aI1730
aI1731
aI1732
aI1733
aI1735
aI1736
aI1737
aI1739
aI1740
aI1741
aI1742
aI1743
aI1744
aI1745
aI1746
aI1747
aI1748
aI1749
aI1752
aI1755
aI1762
aI1764
aI1765
aI1766
aI1767
aI1770
aI1771
aI1772
aI1773
aI1774
aI1775
aI1778
aI1783
aI1787
aI1791
aI1792
aI1805
aI1812
aI1816
aI1817
aI1818
aI1819
aI1821
aI1822
aI1823
aI1824
aI1825
aI1826
aI1827
aI1828
aI1829
aI1830
aI1832
aI1833
aI1834
aI1835
aI1839
aI1841
aI1842
aI1863
aI1864
aI1865
aI1868
aI1873
aI1874
aI1879
aI1880
aI1881
aI1882
aI1883
aI1886
aI1887
aI1889
aI1891
aI1892
aI1893
aI1894
aI1895
aI1896
aI1898
aI1899
aI1900
aI1903
aI1906
aI1909
aI1910
aI1913
aI1914
aI1915
aI1916
aI1917
aI1922
aI1927
aI1928
aI1930
aI1931
aI1932
aI1934
aI1935
aI1936
aI1937
aI1940
aI1941
aI1942
aI1944
aI1945
aI1948
aI1949
aI1950
aI1951
aI1952
aI1955
aI1959
aI1967
aI1969
aI1970
aI2066
aI2099
aI2294
aI2365
aI2375
aI2386
aI2395
aI2402
aI2445
aI2480
aI3301
aI3409
aI3433
aI3452
aI3463
aI3464
aI3467
aI3571
aI3572
aI3594
aI3595
aI3596
aI3597
aI3599
aI3600
aI3601
aI3603
aI3665
aI3667
aI3668
aI3775
aI3798
aa(lp332
I322
aI638
aI642
aI888
aI892
aI1025
aI1034
aI1156
aI1159
aI1160
aI1167
aI1169
aI1171
aI1172
aI1181
aI1189
aI1193
aI1469
aI1474
aI1564
aI1565
aI1570
aI1573
aI1579
aI1584
aI1588
aI1589
aI1590
aI1593
aI1595
aI1598
aI1600
aI1601
aI1605
aI1610
aI1611
aI1612
aI1613
aI1614
aI1615
aI1616
aI1617
aI1619
aI1621
aI1624
aI1630
aI1632
aI1634
aI1636
aI1644
aI1647
aI1653
aI1654
aI1655
aI1658
aI1659
aI1660
aI1661
aI1665
aI1675
aI1676
aI1677
aI1685
aI1691
aI1692
aI1693
aI1699
aI1705
aI1726
aI1750
aI1751
aI1753
aI1757
aI1758
aI1759
aI1760
aI1763
aI1768
aI1769
aI1777
aI1779
aI1784
aI1785
aI1786
aI1790
aI1793
aI1796
aI1799
aI1809
aI1831
aI1836
aI1837
aI1838
aI1840
aI1843
aI1844
aI1845
aI1847
aI1849
aI1850
aI1851
aI1854
aI1855
aI1857
aI1858
aI1859
aI1862
aI1866
aI1867
aI1869
aI1871
aI1872
aI1875
aI1876
aI1877
aI1878
aI1884
aI1885
aI1890
aI1901
aI1904
aI1908
aI1912
aI1918
aI1923
aI1938
aI1943
aI1953
aI1956
aI1957
aI1958
aI2284
aI2288
aI2302
aI2316
aI2403
aI2404
aI2405
aI2468
aI2477
aI2478
aI3450
aI3453
aI3456
aI3457
aI3525
aI3543
aI3562
aI3585
aI3611
aI3618
aI3647
aI3654
aI3655
aI3657
aI3659
aI3660
aI3662
aI3666
aI3672
aI3677
aI3678
aI3679
aI3699
aI3706
aI3709
aI3718
aI3732
aI3735
aI3736
aI3737
aI3738
aI3752
aI3756
aI3757
aI3758
aI3759
aI3778
aI3785
aI3790
aI3791
aI3796
aI3797
aI3800
aI3801
aI3802
aa(lp333
I1016
aI1021
aI1022
aI1032
aI1083
aI1146
aI1154
aI1200
aI1203
aI1207
aI1566
aI1575
aI1585
aI1599
aI1606
aI1608
aI1609
aI1622
aI1649
aI1663
aI1666
aI1669
aI1671
aI1673
aI1678
aI1680
aI1780
aI1788
aI1789
aI1804
aI1846
aI1852
aI1991
aI2176
aI2287
aI2291
aI2307
aI2308
aI2309
aI2377
aI2381
aI2383
aI2390
aI2391
aI2392
aI2393
aI2394
aI2408
aI2410
aI2413
aI2414
aI2415
aI2421
aI2422
aI2466
aI2467
aI2474
aI2483
aI2484
aI2486
aI2487
aI2488
aI2492
aI2493
aI2666
aI2693
aI2705
aI2835
aI3524
aI3526
aI3528
aI3531
aI3540
aI3542
aI3544
aI3545
aI3552
aI3554
aI3555
aI3557
aI3558
aI3559
aI3560
aI3563
aI3564
aI3565
aI3567
aI3580
aI3581
aI3584
aI3587
aI3589
aI3590
aI3591
aI3592
aI3604
aI3605
aI3610
aI3617
aI3625
aI3626
aI3627
aI3628
aI3631
aI3632
aI3636
aI3637
aI3638
aI3639
aI3644
aI3646
aI3648
aI3649
aI3650
aI3652
aI3656
aI3661
aI3669
aI3670
aI3671
aI3674
aI3675
aI3676
aI3681
aI3683
aI3685
aI3687
aI3688
aI3691
aI3693
aI3696
aI3704
aI3705
aI3713
aI3715
aI3716
aI3719
aI3720
aI3722
aI3725
aI3726
aI3727
aI3728
aI3730
aI3734
aI3739
aI3741
aI3742
aI3743
aI3747
aI3751
aI3755
aI3760
aI3762
aI3764
aI3765
aI3767
aI3768
aI3769
aI3770
aI3771
aI3773
aI3776
aI3777
aI3779
aI3781
aI3786
aI3787
aI3788
aI3789
aI3794
aa(lp334
I1027
aI1583
aI1648
aI1679
aI1681
aI1756
aI1776
aI1782
aI1856
aI1860
aI1870
aI2289
aI2384
aI2412
aI2465
aI2489
aI2490
aI3527
aI3529
aI3530
aI3532
aI3533
aI3534
aI3535
aI3536
aI3537
aI3538
aI3539
aI3553
aI3556
aI3561
aI3568
aI3569
aI3570
aI3578
aI3579
aI3582
aI3583
aI3586
aI3588
aI3593
aI3606
aI3607
aI3608
aI3609
aI3612
aI3613
aI3614
aI3615
aI3616
aI3619
aI3620
aI3621
aI3622
aI3623
aI3624
aI3629
aI3630
aI3633
aI3634
aI3635
aI3640
aI3641
aI3642
aI3643
aI3645
aI3651
aI3653
aI3663
aI3673
aI3680
aI3684
aI3689
aI3692
aI3694
aI3703
aI3707
aI3708
aI3710
aI3711
aI3712
aI3714
aI3717
aI3721
aI3723
aI3724
aI3731
aI3744
aI3745
aI3746
aI3748
aI3750
aI3753
aI3754
aI3761
aI3793
aa(lp335
I1155
aI1157
aI1591
aI1848
aI3566
aI3658
aI3695
aI3700
aI3792
aI3795
aI3799
aI3809
aI3810
aI3812
aI3815
aI3818
aI3821
aI3822
aI3823
aI3824
aI3825
aI3826
aI3827
aI3828
aI3829
aI3831
aI3834
aI3835
aI3836
aI3837
aI3838
aI3839
aI3841
aI3844
aI3845
aI3846
aI3847
aI3850
aI3851
aI3852
aI3853
aI3854
aI3855
aI3858
aI3860
aI3862
aI3868
aI3878
aI3916
aI3917
aI3920
aI3939
aI3956
aI3959
aI4261
aI4263
aI4271
aI4613
aa(lp336
I3697
aI3803
aI3804
aI3805
aI3806
aI3807
aI3811
aI3816
aI3817
aI3819
aI3820
aI3830
aI3832
aI3833
aI3840
aI3842
aI3843
aI3848
aI3849
aI3857
aI3859
aI3861
aI3863
aI3864
aI3865
aI3866
aI3867
aI3869
aI3871
aI3872
aI3875
aI3876
aI3877
aI3879
aI3882
aI3884
aI3887
aI3893
aI3895
aI3897
aI3898
aI3899
aI3901
aI3903
aI3907
aI3908
aI3909
aI3910
aI3911
aI3912
aI3913
aI3914
aI3915
aI3918
aI3919
aI3921
aI3922
aI3923
aI3924
aI3925
aI3926
aI3927
aI3928
aI3929
aI3932
aI3935
aI3936
aI3940
aI3941
aI3943
aI3944
aI3945
aI3946
aI3949
aI3951
aI3952
aI3953
aI3954
aI3955
aI3957
aI3958
aI3960
aI3961
aI3962
aI3963
aI3964
aI3966
aI3972
aI3979
aI3991
aI3997
aI3998
aI4000
aI4003
aI4004
aI4006
aI4010
aI4013
aI4015
aI4017
aI4020
aI4027
aI4028
aI4029
aI4032
aI4034
aI4035
aI4038
aI4039
aI4040
aI4042
aI4045
aI4049
aI4050
aI4051
aI4052
aI4053
aI4054
aI4055
aI4058
aI4072
aI4074
aI4076
aI4078
aI4079
aI4081
aI4083
aI4084
aI4087
aI4094
aI4109
aI4111
aI4119
aI4121
aI4125
aI4126
aI4131
aI4132
aI4134
aI4136
aI4137
aI4140
aI4143
aI4147
aI4148
aI4152
aI4153
aI4161
aI4165
aI4166
aI4167
aI4168
aI4169
aI4174
aI4176
aI4177
aI4186
aI4187
aI4194
aI4196
aI4199
aI4200
aI4202
aI4213
aI4216
aI4217
aI4221
aI4222
aI4226
aI4229
aI4233
aI4240
aI4242
aI4243
aI4244
aI4246
aI4247
aI4248
aI4251
aI4252
aI4253
aI4254
aI4255
aI4256
aI4258
aI4259
aI4260
aI4262
aI4264
aI4265
aI4266
aI4267
aI4268
aI4269
aI4270
aI4272
aI4273
aI4275
aI4276
aI4277
aI4278
aI4279
aI4280
aI4281
aI4285
aI4286
aI4289
aI4291
aI4292
aI4294
aI4295
aI4296
aI4297
aI4299
aI4308
aI4309
aI4313
aI4315
aI4316
aI4317
aI4318
aI4321
aI4324
aI4329
aI4333
aI4338
aI4339
aI4340
aI4341
aI4343
aI4344
aI4345
aI4350
aI4353
aI4368
aI4369
aI4370
aI4372
aI4373
aI4374
aI4376
aI4377
aI4378
aI4390
aI4391
aI4400
aI4405
aI4408
aI4409
aI4410
aI4411
aI4427
aI4447
aI4468
aI4471
aI4477
aI4524
aI4539
aI4552
aI4553
aI4558
aI4576
aI4578
aI4579
aI4589
aI4592
aI4593
aI4594
aI4596
aI4598
aI4604
aI4606
aI4607
aI4608
aI4611
aI4612
aI4615
aI4616
aI4617
aI4635
aI4638
aI4646
aI4653
aI4654
aI4664
aI4699
aI4700
aI4732
aI4736
aI4753
aI4758
aI4759
aI4760
aI4762
aI4764
aI4772
aI4779
aI4784
aI4789
aI4790
aI4791
aI4792
aI4794
aI4798
aI4800
aI4811
aI4816
aI4817
aI4818
aI4820
aI4822
aI4834
aI4835
aI4836
aI4839
aI4844
aI4845
aI4861
aI4862
aI4863
aI4864
aI4865
aI4866
aI4868
aI4869
aI4870
aI4872
aI4874
aI4875
aI4878
aI4884
aI4886
aI4888
aI4893
aI4894
aI4924
aI4925
aI4926
aI4928
aI4942
aI4953
aI4955
aI4967
aI4992
aa(lp337
I3698
aI3808
aI3813
aI3814
aI3856
aI3870
aI3873
aI3874
aI3880
aI3881
aI3883
aI3885
aI3886
aI3888
aI3889
aI3890
aI3891
aI3892
aI3894
aI3896
aI3900
aI3902
aI3904
aI3905
aI3906
aI3930
aI3931
aI3933
aI3934
aI3937
aI3938
aI3942
aI3947
aI3948
aI3950
aI3965
aI3967
aI3968
aI3969
aI3970
aI3971
aI3973
aI3974
aI3975
aI3976
aI3977
aI3978
aI3980
aI3981
aI3982
aI3983
aI3984
aI3985
aI3986
aI3987
aI3988
aI3989
aI3990
aI3992
aI3993
aI3994
aI3995
aI3996
aI3999
aI4001
aI4002
aI4005
aI4007
aI4008
aI4009
aI4011
aI4012
aI4014
aI4016
aI4018
aI4019
aI4021
aI4022
aI4023
aI4024
aI4025
aI4026
aI4030
aI4031
aI4033
aI4036
aI4037
aI4041
aI4043
aI4044
aI4046
aI4047
aI4048
aI4056
aI4057
aI4059
aI4060
aI4061
aI4062
aI4063
aI4064
aI4065
aI4066
aI4067
aI4068
aI4069
aI4070
aI4071
aI4073
aI4075
aI4077
aI4080
aI4082
aI4085
aI4086
aI4088
aI4089
aI4090
aI4091
aI4092
aI4093
aI4095
aI4096
aI4097
aI4098
aI4099
aI4100
aI4101
aI4102
aI4103
aI4104
aI4105
aI4106
aI4107
aI4108
aI4110
aI4112
aI4113
aI4114
aI4115
aI4116
aI4117
aI4118
aI4120
aI4122
aI4123
aI4124
aI4127
aI4128
aI4129
aI4130
aI4133
aI4135
aI4138
aI4139
aI4141
aI4142
aI4144
aI4145
aI4146
aI4149
aI4150
aI4151
aI4154
aI4155
aI4156
aI4157
aI4158
aI4159
aI4160
aI4162
aI4163
aI4164
aI4170
aI4171
aI4172
aI4173
aI4175
aI4178
aI4179
aI4180
aI4181
aI4182
aI4183
aI4184
aI4185
aI4188
aI4189
aI4190
aI4191
aI4192
aI4193
aI4195
aI4197
aI4198
aI4201
aI4203
aI4204
aI4205
aI4206
aI4207
aI4208
aI4209
aI4210
aI4211
aI4212
aI4214
aI4215
aI4218
aI4219
aI4220
aI4223
aI4224
aI4225
aI4227
aI4228
aI4230
aI4231
aI4232
aI4234
aI4235
aI4236
aI4237
aI4238
aI4239
aI4241
aI4245
aI4249
aI4250
aI4257
aI4274
aI4282
aI4283
aI4284
aI4287
aI4288
aI4290
aI4293
aI4298
aI4300
aI4301
aI4302
aI4303
aI4304
aI4305
aI4306
aI4307
aI4310
aI4311
aI4312
aI4314
aI4319
aI4320
aI4322
aI4323
aI4325
aI4326
aI4327
aI4328
aI4330
aI4331
aI4332
aI4334
aI4335
aI4336
aI4337
aI4342
aI4346
aI4347
aI4348
aI4349
aI4351
aI4352
aI4354
aI4355
aI4356
aI4357
aI4358
aI4359
aI4360
aI4361
aI4362
aI4363
aI4364
aI4365
aI4366
aI4367
aI4371
aI4375
aI4379
aI4380
aI4381
aI4382
aI4383
aI4384
aI4385
aI4386
aI4387
aI4388
aI4389
aI4392
aI4393
aI4394
aI4395
aI4396
aI4397
aI4398
aI4399
aI4401
aI4402
aI4403
aI4404
aI4406
aI4407
aI4412
aI4413
aI4414
aI4415
aI4416
aI4417
aI4418
aI4419
aI4420
aI4421
aI4422
aI4423
aI4424
aI4425
aI4426
aI4428
aI4429
aI4430
aI4431
aI4432
aI4433
aI4434
aI4435
aI4436
aI4437
aI4438
aI4439
aI4440
aI4441
aI4442
aI4443
aI4444
aI4445
aI4446
aI4448
aI4449
aI4450
aI4451
aI4452
aI4453
aI4454
aI4455
aI4456
aI4457
aI4458
aI4459
aI4460
aI4461
aI4462
aI4463
aI4464
aI4465
aI4466
aI4467
aI4469
aI4470
aI4472
aI4473
aI4474
aI4475
aI4476
aI4478
aI4479
aI4480
aI4481
aI4482
aI4483
aI4484
aI4485
aI4486
aI4487
aI4488
aI4489
aI4490
aI4491
aI4492
aI4493
aI4494
aI4495
aI4496
aI4497
aI4498
aI4499
aI4500
aI4501
aI4502
aI4503
aI4504
aI4505
aI4506
aI4507
aI4508
aI4509
aI4510
aI4511
aI4512
aI4513
aI4514
aI4515
aI4516
aI4517
aI4518
aI4519
aI4520
aI4521
aI4522
aI4523
aI4525
aI4526
aI4527
aI4528
aI4529
aI4530
aI4531
aI4532
aI4533
aI4534
aI4535
aI4536
aI4537
aI4538
aI4540
aI4541
aI4542
aI4543
aI4544
aI4545
aI4546
aI4547
aI4548
aI4549
aI4550
aI4551
aI4554
aI4555
aI4556
aI4557
aI4559
aI4560
aI4561
aI4562
aI4563
aI4564
aI4565
aI4566
aI4567
aI4568
aI4569
aI4570
aI4571
aI4572
aI4573
aI4574
aI4575
aI4577
aI4580
aI4581
aI4582
aI4583
aI4584
aI4585
aI4586
aI4587
aI4588
aI4590
aI4591
aI4595
aI4597
aI4599
aI4600
aI4601
aI4602
aI4603
aI4605
aI4609
aI4610
aI4614
aI4618
aI4619
aI4620
aI4621
aI4622
aI4623
aI4624
aI4625
aI4626
aI4627
aI4628
aI4629
aI4630
aI4631
aI4632
aI4633
aI4634
aI4636
aI4637
aI4639
aI4640
aI4641
aI4642
aI4643
aI4644
aI4645
aI4647
aI4648
aI4649
aI4650
aI4651
aI4652
aI4655
aI4656
aI4657
aI4658
aI4659
aI4660
aI4661
aI4662
aI4663
aI4665
aI4666
aI4667
aI4668
aI4669
aI4670
aI4671
aI4672
aI4673
aI4674
aI4675
aI4676
aI4677
aI4678
aI4679
aI4680
aI4681
aI4682
aI4683
aI4684
aI4685
aI4686
aI4687
aI4688
aI4689
aI4690
aI4691
aI4692
aI4693
aI4694
aI4695
aI4696
aI4697
aI4698
aI4701
aI4702
aI4703
aI4704
aI4705
aI4706
aI4707
aI4708
aI4709
aI4710
aI4711
aI4712
aI4713
aI4714
aI4715
aI4716
aI4717
aI4718
aI4719
aI4720
aI4721
aI4722
aI4723
aI4724
aI4725
aI4726
aI4727
aI4728
aI4729
aI4730
aI4731
aI4733
aI4734
aI4735
aI4737
aI4738
aI4739
aI4740
aI4741
aI4742
aI4743
aI4744
aI4745
aI4746
aI4747
aI4748
aI4749
aI4750
aI4751
aI4752
aI4754
aI4755
aI4756
aI4757
aI4761
aI4763
aI4765
aI4766
aI4767
aI4768
aI4769
aI4770
aI4771
aI4773
aI4774
aI4775
aI4776
aI4777
aI4778
aI4780
aI4781
aI4782
aI4783
aI4785
aI4786
aI4787
aI4788
aI4793
aI4795
aI4796
aI4797
aI4799
aI4801
aI4802
aI4803
aI4804
aI4805
aI4806
aI4807
aI4808
aI4809
aI4810
aI4812
aI4813
aI4814
aI4815
aI4819
aI4821
aI4823
aI4824
aI4825
aI4826
aI4827
aI4828
aI4829
aI4830
aI4831
aI4832
aI4833
aI4837
aI4838
aI4840
aI4841
aI4842
aI4843
aI4846
aI4847
aI4848
aI4849
aI4850
aI4851
aI4852
aI4853
aI4854
aI4855
aI4856
aI4857
aI4858
aI4859
aI4860
aI4867
aI4871
aI4873
aI4876
aI4877
aI4879
aI4880
aI4881
aI4882
aI4883
aI4885
aI4887
aI4889
aI4890
aI4891
aI4892
aI4895
aI4896
aI4897
aI4898
aI4899
aI4900
aI4901
aI4902
aI4903
aI4904
aI4905
aI4906
aI4907
aI4908
aI4909
aI4910
aI4911
aI4912
aI4913
aI4914
aI4915
aI4916
aI4917
aI4918
aI4919
aI4920
aI4921
aI4922
aI4923
aI4927
aI4929
aI4930
aI4931
aI4932
aI4933
aI4934
aI4935
aI4936
aI4937
aI4938
aI4939
aI4940
aI4941
aI4943
aI4944
aI4945
aI4946
aI4947
aI4948
aI4949
aI4950
aI4951
aI4952
aI4954
aI4956
aI4957
aI4958
aI4959
aI4960
aI4961
aI4962
aI4963
aI4964
aI4965
aI4966
aI4968
aI4969
aI4970
aI4971
aI4972
aI4973
aI4974
aI4975
aI4976
aI4977
aI4978
aI4979
aI4980
aI4981
aI4982
aI4983
aI4984
aI4985
aI4986
aI4987
aI4988
aI4989
aI4990
aI4991
aI4993
aI4994
aI4995
aI4996
aI4997
aI4998
aI4999
aaa(lp338
g2
(g3
(I0
tp339
g5
tp340
Rp341
(I1
(I3
tp342
g12
I00
S'\x00\x00\x00\x00=\nB@\x00\x00\x00@\x0f\x87A@\x00\x00\x00 \x89\xf4N@'
p343
tp344
bag2
(g3
(I0
tp345
g5
tp346
Rp347
(I1
(I3
tp348
g12
I00
S'\x00\x00\x00@\xa9\xc3A@\x00\x00\x00\xc0\xe0\x8eA@\x00\x00\x00@v\xf7N@'
p349
tp350
bag2
(g3
(I0
tp351
g5
tp352
Rp353
(I1
(I3
tp354
g12
I00
S'\x00\x00\x00`\x9d\xb6A@\x00\x00\x00\xc0\xe9\xd7A@\x00\x00\x00 \xdf\xdcN@'
p355
tp356
bag2
(g3
(I0
tp357
g5
tp358
Rp359
(I1
(I3
tp360
g12
I00
S'\x00\x00\x00\xa0\x9c\xc0A@\x00\x00\x00\x00\x83\x18B@\x00\x00\x00\xc0\x0f\xbdN@'
p361
tp362
bag2
(g3
(I0
tp363
g5
tp364
Rp365
(I1
(I3
tp366
g12
I00
S'\x00\x00\x00\xe0\xcc\xa1A@\x00\x00\x00\xc0\xa3\xd5A@\x00\x00\x00\xc0\x91\x9aN@'
p367
tp368
bag2
(g3
(I0
tp369
g5
tp370
Rp371
(I1
(I3
tp372
g12
I00
S'\x00\x00\x00\x80c\xd3A@\x00\x00\x00\xa0\xe8\x92A@\x00\x00\x00\xe0\x84\xadN@'
p373
tp374
bag2
(g3
(I0
tp375
g5
tp376
Rp377
(I1
(I3
tp378
g12
I00
S'\x00\x00\x00 9\xfcA@\x00\x00\x00\xa0\xb2\xccA@\x00\x00\x00\xe0h\xcfN@'
p379
tp380
bag2
(g3
(I0
tp381
g5
tp382
Rp383
(I1
(I3
tp384
g12
I00
S'\x00\x00\x00\xa0\x93IB@\x00\x00\x00\xc0\xd3\xd5A@\x00\x00\x00\x00\xda\xa4N@'
p385
tp386
bag2
(g3
(I0
tp387
g5
tp388
Rp389
(I1
(I3
tp390
g12
I00
S'\x00\x00\x00\xe0i\x03B@\x00\x00\x00\xa0Q\xb5A@\x00\x00\x00@\xa6hN@'
p391
tp392
bag2
(g3
(I0
tp393
g5
tp394
Rp395
(I1
(I3
tp396
g12
I00
S'\x00\x00\x00\x80\x7f\xc9A@\x00\x00\x00`}\xe1A@\x00\x00\x00\xe0X@N@'
p397
tp398
bag2
(g3
(I0
tp399
g5
tp400
Rp401
(I1
(I3
tp402
g12
I00
S'\x00\x00\x00`\x8a\xffA@\x00\x00\x00 \xa7\tB@\x00\x00\x00\x80P7N@'
p403
tp404
bag2
(g3
(I0
tp405
g5
tp406
Rp407
(I1
(I3
tp408
g12
I00
S'\x00\x00\x00\x00VKB@\x00\x00\x00\xa0\xed\xf6A@\x00\x00\x00\xa0@GN@'
p409
tp410
bag2
(g3
(I0
tp411
g5
tp412
Rp413
(I1
(I3
tp414
g12
I00
S'\x00\x00\x00\xa0\x14UB@\x00\x00\x00\x00@+B@\x00\x00\x00 \x89\x1dN@'
p415
tp416
bag2
(g3
(I0
tp417
g5
tp418
Rp419
(I1
(I3
tp420
g12
I00
S"\x00\x00\x00@\x96'B@\x00\x00\x00\xa0\x9c\x14B@\x00\x00\x00 \xc9\xc8M@"
p421
tp422
bag2
(g3
(I0
tp423
g5
tp424
Rp425
(I1
(I3
tp426
g12
I00
S'\x00\x00\x00\x80W\xeaA@\x00\x00\x00\xe0\xdeDB@\x00\x00\x00@\x88\xa3M@'
p427
tp428
bag2
(g3
(I0
tp429
g5
tp430
Rp431
(I1
(I3
tp432
g12
I00
S'\x00\x00\x00\x80Y\xb4A@\x00\x00\x00\x00UbB@\x00\x00\x00`S\x8fM@'
p433
tp434
baa(lp435
I2219
aI2547
aI3402
aI117
aI3221
aI435
aI1414
aI144
aI1961
aI1687
aI1757
aI3769
aI3707
aI3818
aI4027
aI4218
aa(lp436
g2
(g3
(I0
tp437
g5
tp438
Rp439
(I1
(I3
tp440
g12
I00
S'\x00\x00\x00\x00=\nB@\x00\x00\x00@\x0f\x87A@\x00\x00\x00 \x89\xf4N@'
p441
tp442
bag2
(g3
(I0
tp443
g5
tp444
Rp445
(I1
(I3
tp446
g12
I00
S'\x00\x00\x00 S\xe0A@\x00\x00\x00\xa0\xde\x96A@\x00\x00\x00\xa0\xc8\xfbN@'
p447
tp448
bag2
(g3
(I0
tp449
g5
tp450
Rp451
(I1
(I3
tp452
g12
I00
S'\x00\x00\x00`o\xbdA@\x00\x00\x00 \x1d\xbbA@\x00\x00\x00@\xbe\xefN@'
p453
tp454
bag2
(g3
(I0
tp455
g5
tp456
Rp457
(I1
(I3
tp458
g12
I00
S'\x00\x00\x00\x80\x93\xbaA@\x00\x00\x00\x80~\xe7A@\x00\x00\x00\x807\xe0N@'
p459
tp460
bag2
(g3
(I0
tp461
g5
tp462
Rp463
(I1
(I3
tp464
g12
I00
S'\x00\x00\x00 \x87\xbeA@\x00\x00\x00\xc0,\x00B@\x00\x00\x00\x00`\xbdN@'
p465
tp466
bag2
(g3
(I0
tp467
g5
tp468
Rp469
(I1
(I3
tp470
g12
I00
S'\x00\x00\x00\x00\xde\xafA@\x00\x00\x00\x80i\xd7A@\x00\x00\x00`g\xa3N@'
p471
tp472
bag2
(g3
(I0
tp473
g5
tp474
Rp475
(I1
(I3
tp476
g12
I00
S'\x00\x00\x00\xe0s\xc9A@\x00\x00\x00\xc0E\xabA@\x00\x00\x00\xc0\x99\xb1N@'
p477
tp478
bag2
(g3
(I0
tp479
g5
tp480
Rp481
(I1
(I3
tp482
g12
I00
S'\x00\x00\x00\xc0\xf9\xe6A@\x00\x00\x00\x80\xcb\xb6A@\x00\x00\x00\x80d\xbbN@'
p483
tp484
bag2
(g3
(I0
tp485
g5
tp486
Rp487
(I1
(I3
tp488
g12
I00
S'\x00\x00\x00@\x96\x18B@\x00\x00\x00`\t\xc9A@\x00\x00\x00\xe0\xec\xb7N@'
p489
tp490
bag2
(g3
(I0
tp491
g5
tp492
Rp493
(I1
(I3
tp494
g12
I00
S'\x00\x00\x00\x00\x9b8B@\x00\x00\x00\x00p\xcdA@\x00\x00\x00 \xd5\x94N@'
p495
tp496
bag2
(g3
(I0
tp497
g5
tp498
Rp499
(I1
(I3
tp500
g12
I00
S'\x00\x00\x00\xa0a\x0eB@\x00\x00\x00\x80|\xc7A@\x00\x00\x00\x80YpN@'
p501
tp502
bag2
(g3
(I0
tp503
g5
tp504
Rp505
(I1
(I3
tp506
g12
I00
S'\x00\x00\x00\xc0\xff\xddA@\x00\x00\x00\xe0\xf8\xd4A@\x00\x00\x00\x80>QN@'
p507
tp508
bag2
(g3
(I0
tp509
g5
tp510
Rp511
(I1
(I3
tp512
g12
I00
S'\x00\x00\x00\x80\xa2\xe9A@\x00\x00\x00\xa0\xe6\xebA@\x00\x00\x00\xc0\x13=N@'
p513
tp514
bag2
(g3
(I0
tp515
g5
tp516
Rp517
(I1
(I3
tp518
g12
I00
S'\x00\x00\x00\xc09\x1dB@\x00\x00\x00\x80\xae\x01B@\x00\x00\x00\xe0\x06:N@'
p519
tp520
bag2
(g3
(I0
tp521
g5
tp522
Rp523
(I1
(I3
tp524
g12
I00
S'\x00\x00\x00\xe0\xe6IB@\x00\x00\x00\x80\xe2\x05B@\x00\x00\x00\x80\xb68N@'
p525
tp526
bag2
(g3
(I0
tp527
g5
tp528
Rp529
(I1
(I3
tp530
g12
I00
S'\x00\x00\x00\xa0,IB@\x00\x00\x00\xa0\xf2\x1dB@\x00\x00\x00\xe0z\x0eN@'
p531
tp532
bag2
(g3
(I0
tp533
g5
tp534
Rp535
(I1
(I3
tp536
g12
I00
S"\x00\x00\x00@\x96'B@\x00\x00\x00\xa0\x9c\x14B@\x00\x00\x00 \xc9\xc8M@"
p537
tp538
bag2
(g3
(I0
tp539
g5
tp540
Rp541
(I1
(I3
tp542
g12
I00
S'\x00\x00\x00`s\x17B@\x00\x00\x00@\x92+B@\x00\x00\x00\xa0\xb8\xbaM@'
p543
tp544
bag2
(g3
(I0
tp545
g5
tp546
Rp547
(I1
(I3
tp548
g12
I00
S'\x00\x00\x00\x00*\xe8A@\x00\x00\x00\xc0\x07EB@\x00\x00\x00 c\x9fM@'
p549
tp550
bag2
(g3
(I0
tp551
g5
tp552
Rp553
(I1
(I3
tp554
g12
I00
S'\x00\x00\x00\x80Y\xb4A@\x00\x00\x00\x00UbB@\x00\x00\x00`S\x8fM@'
p555
tp556
baa(lp557
I2219
aI1065
aI3193
aI3227
aI2177
aI2009
aI2458
aI177
aI1505
aI2821
aI1191
aI1932
aI1639
aI1172
aI3693
aI1756
aI3818
aI3917
aI4295
aI4218
aa.