(lp0
I1000
aI3
aI10
aI16
aF0.1
aI30
a(lp1
cnumpy.core.multiarray
_reconstruct
p2
(cnumpy
ndarray
p3
(I0
tp4
S'b'
p5
tp6
Rp7
(I1
(I3
tp8
cnumpy
dtype
p9
(S'f8'
p10
I0
I1
tp11
Rp12
(I3
S'<'
p13
NNNI-1
I-1
I0
tp14
bI00
S'1\x0c\xc3\xb0\xdb\xeaS@z\x9e\xe79\xe2\xf4T@\x18\x86a\x98\xaf\xbcD@'
p15
tp16
bag2
(g3
(I0
tp17
g5
tp18
Rp19
(I1
(I3
tp20
g12
I00
S'3\xdf]zt\x93R@\x8b\xa0\x1f\x8f\xb4\xd7R@\xb1\xad\xbf\xe5:\xabH@'
p21
tp22
bag2
(g3
(I0
tp23
g5
tp24
Rp25
(I1
(I3
tp26
g12
I00
S'\xb7\xa3\x8a\xc2dHT@\x8b\x86\xe3d\x9aFP@\x9b\x86\xcd\xd9\xed\\J@'
p27
tp28
bag2
(g3
(I0
tp29
g5
tp30
Rp31
(I1
(I3
tp32
g12
I00
S'\x82\xdd\xcd\xbaD\xb0U@\xbb|9\xec\xa0\xecM@\x83\xe7\x97H\n.J@'
p33
tp34
bag2
(g3
(I0
tp35
g5
tp36
Rp37
(I1
(I3
tp38
g12
I00
S'\xd8\xec\x82?L\x1dW@\xd9D\xf5s\xcbQQ@\xd0\xa4\xafZ\xfd\xa3J@'
p39
tp40
bag2
(g3
(I0
tp41
g5
tp42
Rp43
(I1
(I3
tp44
g12
I00
S' \xf2ECh&V@gA\x985\xb1\x8eS@\xe6\x98\x92Y\xb5\xc4N@'
p45
tp46
bag2
(g3
(I0
tp47
g5
tp48
Rp49
(I1
(I3
tp50
g12
I00
S"\xb4<A\xf12kT@\x1dF\xef\xbe'\xd8R@LI;\xd1a\xe4Q@"
p51
tp52
bag2
(g3
(I0
tp53
g5
tp54
Rp55
(I1
(I3
tp56
g12
I00
S'\xdc\x07lR\x8b\xccS@\xc5\x08qkG\xc6O@\xf8^\xa0E\x1c6R@'
p57
tp58
bag2
(g3
(I0
tp59
g5
tp60
Rp61
(I1
(I3
tp62
g12
I00
S'LR\xb733\nT@top\x13\xe6,L@\x8c\x13\xcf\xcc$HP@'
p63
tp64
bag2
(g3
(I0
tp65
g5
tp66
Rp67
(I1
(I3
tp68
g12
I00
S'\x1c\xc7q\xccu\xe9S@\xc7q\x1c\x15\xcbXI@\x19x\xba\xd1\x85\xf1P@'
p69
tp70
baa(lp71
g2
(g3
(I0
tp72
g5
tp73
Rp74
(I1
(I3
tp75
g12
I00
S'1\x0c\xc3\xb0\xdb\xeaS@z\x9e\xe79\xe2\xf4T@\x18\x86a\x98\xaf\xbcD@'
p76
tp77
bag2
(g3
(I0
tp78
g5
tp79
Rp80
(I1
(I3
tp81
g12
I00
S"\r\xf3\x01S\xda:S@_\xdf\xfb#W\xddS@'k\xff\xe3V\xc3F@"
p82
tp83
bag2
(g3
(I0
tp84
g5
tp85
Rp86
(I1
(I3
tp87
g12
I00
S'|\xa8\x1a\xb8c\xb4R@\xe2\\\x13W\xc2\xbfR@u\xb2\xc2\xc5S\xabH@'
p88
tp89
bag2
(g3
(I0
tp90
g5
tp91
Rp92
(I1
(I3
tp93
g12
I00
S'\xea$\xbc\xf7\xa3\x82S@\xcf\xc4\xe2\x87\x06qQ@2\n\x82z\x9e\x96I@'
p94
tp95
bag2
(g3
(I0
tp96
g5
tp97
Rp98
(I1
(I3
tp99
g12
I00
S"\xbe{s\xb8\x10pT@nV\x99\xe8,'P@\x16\xed\xe3a\xa1LJ@"
p100
tp101
bag2
(g3
(I0
tp102
g5
tp103
Rp104
(I1
(I3
tp105
g12
I00
S'\x81,FF.\x9bU@\x8e\xbc\xce\xca\x1aIN@\x9b>\xd4\xcdo5J@'
p106
tp107
bag2
(g3
(I0
tp108
g5
tp109
Rp110
(I1
(I3
tp111
g12
I00
S'\x91\xb2\x85\x91\x91xV@\xb7aLWDJP@E\xfam/\xd3vJ@'
p112
tp113
bag2
(g3
(I0
tp114
g5
tp115
Rp116
(I1
(I3
tp117
g12
I00
S's\x0b\xb8\xe9=\xefV@\x9b>@\x13\xe2\x9cQ@\xc6B\xb4\xfeKDK@'
p118
tp119
bag2
(g3
(I0
tp120
g5
tp121
Rp122
(I1
(I3
tp123
g12
I00
S'\x96\xfe\x00\x102{V@\x93\xcbpR\xcb\xbfR@\x9a\x91\xe3\xde\xaaTM@'
p124
tp125
bag2
(g3
(I0
tp126
g5
tp127
Rp128
(I1
(I3
tp129
g12
I00
S'\x83p\x9d\x19\x82\xd8U@c\x06\x0c\x9e\xcbbS@&\x92\xe5\xb8j\xa0O@'
p130
tp131
bag2
(g3
(I0
tp132
g5
tp133
Rp134
(I1
(I3
tp135
g12
I00
S'\xafb\x16\xd4s\xf6T@\xa1|\xb7P\xc0\tS@\xf4\x7f\x9c\xfe\xff\x18Q@'
p136
tp137
bag2
(g3
(I0
tp138
g5
tp139
Rp140
(I1
(I3
tp141
g12
I00
S'W\xfb\xfc\x9d\xeaKT@yB\x13y3%R@\x8aqq\xb8#\xeeQ@'
p142
tp143
bag2
(g3
(I0
tp144
g5
tp145
Rp146
(I1
(I3
tp147
g12
I00
S'q2\x9a\x0bQ\xf5S@d\x97\xcd\x97p\x98P@\x16]\x8c\x91\xff\x18R@'
p148
tp149
bag2
(g3
(I0
tp150
g5
tp151
Rp152
(I1
(I3
tp153
g12
I00
S'\xc6\xba\xf9\x15\xdf\xe4S@\x1c\xd3\xad\x9d[\x88N@N\x0e\xcf\x06-\x81Q@'
p154
tp155
bag2
(g3
(I0
tp156
g5
tp157
Rp158
(I1
(I3
tp159
g12
I00
S'\r\x80M \xf5\x04T@\xe2^\xe4\xdd\x92>L@M\xcar\xae\x7fmP@'
p160
tp161
bag2
(g3
(I0
tp162
g5
tp163
Rp164
(I1
(I3
tp165
g12
I00
S'\x1c\xc7q\xccu\xe9S@\xc7q\x1c\x15\xcbXI@\x19x\xba\xd1\x85\xf1P@'
p166
tp167
baa(lp168
cnumpy.core.multiarray
scalar
p169
(g12
S'\xa6\xf0\x80i\x90\x8f1@'
p170
tp171
Rp172
ag169
(g12
S'\xb5{m\xe5\x99}!@'
p173
tp174
Rp175
ag169
(g12
S'\xad\x97E\xdb\xe7\xa1#@'
p176
tp177
Rp178
ag169
(g12
S'\xb62n\xa8zh\x13@'
p179
tp180
Rp181
ag169
(g12
S'\xde\xb3\\\x99c\xc3\x1a@'
p182
tp183
Rp184
ag169
(g12
S'9\xc1)\x9b\xdf\xb1\x1e@'
p185
tp186
Rp187
ag169
(g12
S'\xde}Ck\x13i\x1b@'
p188
tp189
Rp190
ag169
(g12
S'&\xdd\xd5;\xe8\r!@'
p191
tp192
Rp193
ag169
(g12
S"T\xb2\x18:\x17\xf5'@"
p194
tp195
Rp196
ag169
(g12
S'\xb8\xaa\x1cdm\x8f4@'
p197
tp198
Rp199
ag169
(g12
S'\xf1\x93\x1ct\x97\xba\x1b@'
p200
tp201
Rp202
ag169
(g12
S'\x82S\xc4\x17CL#@'
p203
tp204
Rp205
ag169
(g12
S'\xa9\x8f\xf9e\x94\xdf\x1b@'
p206
tp207
Rp208
ag169
(g12
S'\xc5\xfc\xc2\x0e\xfe\n\x14@'
p209
tp210
Rp211
ag169
(g12
S'9\xbc\xeeT\x1b\x98\x13@'
p212
tp213
Rp214
ag169
(g12
S'\x7f(:B\x14\x00\x05@'
p215
tp216
Rp217
ag169
(g12
S'1\xd3(\xc0oT\xf9?'
p218
tp219
Rp220
ag169
(g12
S'@\x8f=\x92\xba\x18\xe9?'
p221
tp222
Rp223
ag169
(g12
S'\xebj\xae\xef\xaa\xb8\xcc?'
p224
tp225
Rp226
ag169
(g12
S'\xd2\x0f\x9d\x17x\x86\xd7?'
p227
tp228
Rp229
ag169
(g12
S'\xe3O"\x0c\xa28\xc3?'
p230
tp231
Rp232
ag169
(g12
S'\x9c\xf5\xbb\xec\xa2\x95\xad?'
p233
tp234
Rp235
ag169
(g12
S'\x07\xdd\x0e\xe2\xa6\xad\xa3?'
p236
tp237
Rp238
ag169
(g12
S'\xa9e\x13\xb8=+\x9e?'
p239
tp240
Rp241
ag169
(g12
S'\x00\x00\x00\x00\x00\x00\x00\x00'
p242
tp243
Rp244
ag169
(g12
S'\x00\x00\x00\x00\x00\x00\x00\x00'
p245
tp246
Rp247
ag169
(g12
S'\x00\x00\x00\x00\x00\x00\x00\x00'
p248
tp249
Rp250
ag169
(g12
S'\x00\x00\x00\x00\x00\x00\x00\x00'
p251
tp252
Rp253
ag169
(g12
S'\x00\x00\x00\x00\x00\x00\x00\x00'
p254
tp255
Rp256
ag169
(g12
S'\x00\x00\x00\x00\x00\x00\x00\x00'
p257
tp258
Rp259
aa(lp260
F2.3031096424211897
aF2.131604744259387
aF2.3031096424211897
aF1.0124422111110745
aF2.9580596957266847
aF2.544832219993036
aF3.0499583546178397
aF2.3031096424211897
aF0.3706675278569229
aF1.0851081947013534
aa(lp261
(lp262
I0
aI1
aI2
aI3
aI4
aI5
aI6
aI7
aI11
aI14
aI15
aI16
aI20
aI21
aI22
aI23
aI24
aI26
aI28
aI29
aI30
aa(lp263
I17
aI18
aI19
aI31
aI32
aI33
aI34
aI35
aI36
aI37
aI38
aI39
aI40
aI41
aI42
aI43
aI44
aI45
aI46
aI47
aI48
aI49
aI50
aI51
aI52
aI53
aI54
aI55
aa(lp264
I56
aI57
aI58
aI59
aI60
aI61
aI62
aI63
aI233
aI234
aI235
aI236
aI237
aI238
aI359
aI365
aI414
aI415
aI416
aI417
aI418
aa(lp265
I8
aI64
aI239
aI240
aI241
aI242
aI243
aI244
aI245
aI246
aI247
aI248
aI249
aI250
aI251
aI252
aI253
aI254
aI255
aI256
aI257
aI258
aI259
aI260
aI261
aI262
aI263
aI264
aI265
aI266
aI267
aI268
aI269
aI270
aI271
aI272
aI273
aI274
aI275
aI276
aI277
aI278
aI279
aI280
aI281
aI282
aI283
aI284
aI285
aI286
aI287
aI288
aI289
aI290
aI291
aI292
aI293
aI294
aI295
aI296
aI297
aI298
aI299
aI300
aI301
aI302
aI303
aI304
aI305
aI306
aI307
aI308
aI309
aI310
aI311
aI312
aI313
aI314
aI315
aI316
aI317
aI318
aI319
aI320
aI321
aI322
aI323
aI324
aI325
aI326
aI327
aI328
aI329
aI330
aI331
aI332
aI333
aI334
aI335
aI336
aI337
aI338
aI339
aI340
aI341
aI342
aI343
aI344
aI345
aI346
aI347
aI348
aI349
aI350
aI351
aI352
aI353
aI354
aI355
aI356
aI357
aI358
aI360
aI361
aI362
aI363
aI364
aI366
aI367
aI368
aI369
aI371
aI372
aI373
aI374
aI375
aI376
aI377
aI378
aI379
aI380
aI381
aI382
aI383
aI384
aI385
aI386
aI387
aI388
aI389
aI390
aI391
aI392
aI393
aI394
aI395
aI396
aI397
aI398
aI399
aI400
aI401
aI402
aI403
aI404
aI405
aI406
aI407
aI408
aI409
aI410
aI411
aI412
aI413
aI419
aI420
aI421
aI701
aI741
aI772
aI846
aI852
aI970
aa(lp266
I370
aI422
aI423
aI424
aI425
aI426
aI427
aa(lp267
I428
aI429
aI430
aI431
aI432
aI433
aI434
aI435
aI436
aI437
aI438
aI439
aI440
aI441
aa(lp268
I442
aI443
aI444
aI445
aI446
aI447
aa(lp269
I100
aI103
aI104
aI105
aI106
aI107
aI108
aI109
aI112
aI448
aI449
aI450
aI451
aI452
aI453
aI454
aI455
aI456
aI457
aI458
aI460
aa(lp270
I65
aI66
aI67
aI68
aI69
aI70
aI71
aI72
aI73
aI74
aI75
aI76
aI77
aI78
aI79
aI80
aI81
aI82
aI83
aI84
aI85
aI86
aI87
aI88
aI89
aI90
aI91
aI92
aI93
aI94
aI95
aI96
aI97
aI98
aI99
aI101
aI102
aI110
aI111
aI113
aI115
aI116
aI117
aI118
aI119
aI120
aI121
aI122
aI123
aI124
aI125
aI126
aI128
aI131
aI163
aI164
aI171
aI172
aI199
aI200
aI201
aI202
aI228
aI229
aI230
aI231
aI232
aI461
aI474
aI475
aI476
aI491
aI502
aI503
aI510
aI511
aI513
aI516
aI517
aI520
aI521
aI526
aI529
aI530
aI536
aI537
aI538
aI539
aI540
aI541
aI542
aI543
aI544
aI545
aI546
aI547
aI548
aI549
aI550
aI551
aI552
aI553
aI554
aI555
aI556
aI557
aI558
aI559
aI560
aI561
aI562
aI563
aI564
aI565
aI566
aI567
aI568
aI569
aI570
aI571
aI572
aI573
aI574
aI575
aI576
aI577
aI578
aI579
aI580
aI581
aI582
aI583
aI584
aI585
aI586
aI587
aI588
aI589
aI590
aI591
aI592
aI593
aI594
aI595
aI596
aI597
aI598
aI599
aI600
aI601
aI602
aI603
aI604
aI605
aI606
aI607
aI608
aI609
aI610
aI611
aI612
aI613
aI614
aI615
aI616
aI617
aI618
aI619
aI620
aI621
aI622
aI623
aI624
aI625
aI626
aI627
aI628
aI629
aI630
aI631
aI632
aI633
aI634
aI635
aI636
aI637
aI638
aI639
aI640
aI641
aI642
aI643
aI644
aI645
aI646
aI647
aI648
aI649
aI650
aI651
aI652
aI653
aI654
aI655
aI656
aI657
aI658
aI659
aI660
aI661
aI662
aI663
aI664
aI667
aI668
aI672
aI673
aI674
aI675
aI676
aI677
aI678
aI679
aI680
aI681
aI682
aI683
aI684
aI685
aI686
aI687
aI688
aI689
aI690
aI691
aI692
aI693
aI694
aI695
aI696
aI697
aI698
aI699
aI700
aI702
aI703
aI704
aI705
aI706
aI707
aI708
aI709
aI710
aI711
aI712
aI713
aI714
aI715
aI716
aI717
aI718
aI719
aI720
aI721
aI722
aI723
aI724
aI725
aI726
aI727
aI728
aI729
aI730
aI731
aI732
aI733
aI734
aI735
aI736
aI737
aI738
aI739
aI740
aI742
aI743
aI744
aI745
aI746
aI747
aI748
aI749
aI750
aI751
aI752
aI753
aI754
aI755
aI756
aI757
aI758
aI759
aI760
aI761
aI762
aI763
aI764
aI765
aI766
aI767
aI768
aI769
aI770
aI771
aI773
aI774
aI775
aI776
aI777
aI778
aI779
aI780
aI781
aI782
aI783
aI784
aI785
aI786
aI787
aI788
aI789
aI790
aI791
aI792
aI793
aI794
aI795
aI796
aI797
aI798
aI799
aI800
aI801
aI802
aI803
aI804
aI805
aI806
aI807
aI808
aI809
aI810
aI811
aI812
aI813
aI814
aI815
aI816
aI817
aI818
aI819
aI820
aI821
aI822
aI823
aI824
aI825
aI826
aI827
aI828
aI829
aI830
aI831
aI832
aI833
aI834
aI835
aI836
aI837
aI838
aI839
aI840
aI841
aI842
aI843
aI844
aI845
aI847
aI848
aI849
aI850
aI851
aI853
aI854
aI855
aI856
aI857
aI858
aI859
aI860
aI861
aI862
aI863
aI864
aI865
aI866
aI867
aI868
aI869
aI870
aI871
aI872
aI873
aI874
aI875
aI876
aI877
aI878
aI879
aI880
aI881
aI882
aI883
aI884
aI885
aI886
aI887
aI888
aI889
aI890
aI891
aI892
aI893
aI894
aI895
aI896
aI897
aI898
aI899
aI900
aI901
aI902
aI903
aI904
aI905
aI906
aI907
aI908
aI909
aI910
aI911
aI912
aI913
aI914
aI915
aI916
aI917
aI918
aI919
aI920
aI921
aI922
aI923
aI924
aI925
aI926
aI927
aI928
aI929
aI930
aI931
aI932
aI933
aI934
aI935
aI936
aI937
aI938
aI939
aI940
aI941
aI942
aI943
aI944
aI945
aI946
aI947
aI948
aI949
aI950
aI951
aI952
aI953
aI954
aI955
aI956
aI957
aI958
aI959
aI960
aI961
aI962
aI963
aI964
aI965
aI966
aI967
aI968
aI969
aI971
aI972
aI973
aI974
aI975
aI976
aI977
aI978
aI979
aI980
aI981
aI982
aI983
aI984
aI985
aI986
aI987
aI988
aI989
aI990
aI991
aI992
aI993
aI994
aI995
aI996
aI997
aI998
aI999
aa(lp271
I9
aI10
aI12
aI13
aI25
aI27
aI114
aI127
aI129
aI130
aI132
aI133
aI134
aI135
aI136
aI137
aI138
aI139
aI140
aI141
aI142
aI143
aI144
aI145
aI146
aI147
aI148
aI149
aI150
aI151
aI152
aI153
aI154
aI155
aI156
aI157
aI158
aI159
aI160
aI161
aI162
aI165
aI166
aI167
aI168
aI169
aI170
aI173
aI174
aI175
aI176
aI177
aI178
aI179
aI180
aI181
aI182
aI183
aI184
aI185
aI186
aI187
aI188
aI189
aI190
aI191
aI192
aI193
aI194
aI195
aI196
aI197
aI198
aI203
aI204
aI205
aI206
aI207
aI208
aI209
aI210
aI211
aI212
aI213
aI214
aI215
aI216
aI217
aI218
aI219
aI220
aI221
aI222
aI223
aI224
aI225
aI226
aI227
aI459
aI462
aI463
aI464
aI465
aI466
aI467
aI468
aI469
aI470
aI471
aI472
aI473
aI477
aI478
aI479
aI480
aI481
aI482
aI483
aI484
aI485
aI486
aI487
aI488
aI489
aI490
aI492
aI493
aI494
aI495
aI496
aI497
aI498
aI499
aI500
aI501
aI504
aI505
aI506
aI507
aI508
aI509
aI512
aI514
aI515
aI518
aI519
aI522
aI523
aI524
aI525
aI527
aI528
aI531
aI532
aI533
aI534
aI535
aI665
aI666
aI669
aI670
aI671
aaa(lp272
g2
(g3
(I0
tp273
g5
tp274
Rp275
(I1
(I3
tp276
g12
I00
S'\x00\x00\x00`\xb0\xd0S@\x00\x00\x00\xa0\x12\xc1T@\x00\x00\x00\xc0\x1d\x7fF@'
p277
tp278
bag2
(g3
(I0
tp279
g5
tp280
Rp281
(I1
(I3
tp282
g12
I00
S'\x00\x00\x00`\x98>R@\x00\x00\x00@\xdb\x1eS@\x00\x00\x00\x80J\xf0H@'
p283
tp284
bag2
(g3
(I0
tp285
g5
tp286
Rp287
(I1
(I3
tp288
g12
I00
S'\x00\x00\x00`\x8d|T@\x00\x00\x00\x00\n:P@\x00\x00\x00\xe06\x18K@'
p289
tp290
bag2
(g3
(I0
tp291
g5
tp292
Rp293
(I1
(I3
tp294
g12
I00
S'\x00\x00\x00\x00\xc9\xfcT@\x00\x00\x00\xe0\x9b\xd7K@\x00\x00\x00\xe0\x9e%J@'
p295
tp296
bag2
(g3
(I0
tp297
g5
tp298
Rp299
(I1
(I3
tp300
g12
I00
S'\x00\x00\x00`\tzW@\x00\x00\x00`m\xfeP@\x00\x00\x00\xc0\xc7\x87I@'
p301
tp302
bag2
(g3
(I0
tp303
g5
tp304
Rp305
(I1
(I3
tp306
g12
I00
S'\x00\x00\x00\x80\x07HV@\x00\x00\x00 \x85\x86S@\x00\x00\x00\xa0\x86LO@'
p307
tp308
bag2
(g3
(I0
tp309
g5
tp310
Rp311
(I1
(I3
tp312
g12
I00
S'\x00\x00\x00\x00\xf2FT@\x00\x00\x00`T+S@\x00\x00\x00\xa0\xb3,R@'
p313
tp314
bag2
(g3
(I0
tp315
g5
tp316
Rp317
(I1
(I3
tp318
g12
I00
S'\x00\x00\x00\xc0V\x1dT@\x00\x00\x00\x80\x94HM@\x00\x00\x00\xe0\x04\x8eR@'
p319
tp320
bag2
(g3
(I0
tp321
g5
tp322
Rp323
(I1
(I3
tp324
g12
I00
S'\x00\x00\x00`\xd4@T@\x00\x00\x00\x80\xf6eK@\x00\x00\x00\x80K\x05N@'
p325
tp326
bag2
(g3
(I0
tp327
g5
tp328
Rp329
(I1
(I3
tp330
g12
I00
S'\x00\x00\x00`\x92\x13T@\x00\x00\x00\xe0\x9blI@\x00\x00\x00\xa0\x9f-Q@'
p331
tp332
baa(lp333
I15
aI42
aI417
aI241
aI425
aI429
aI444
aI452
aI816
aI223
aa(lp334
g2
(g3
(I0
tp335
g5
tp336
Rp337
(I1
(I3
tp338
g12
I00
S'\x00\x00\x00`\xb0\xd0S@\x00\x00\x00\xa0\x12\xc1T@\x00\x00\x00\xc0\x1d\x7fF@'
p339
tp340
bag2
(g3
(I0
tp341
g5
tp342
Rp343
(I1
(I3
tp344
g12
I00
S'\x00\x00\x00 \xcf\xf8R@\x00\x00\x00\xa0q\xe0S@\x00\x00\x00\x00F\x97G@'
p345
tp346
bag2
(g3
(I0
tp347
g5
tp348
Rp349
(I1
(I3
tp350
g12
I00
S'\x00\x00\x00 \xa6GR@\x00\x00\x00 \xed\xe6R@\x00\x00\x00 \x841H@'
p351
tp352
bag2
(g3
(I0
tp353
g5
tp354
Rp355
(I1
(I3
tp356
g12
I00
S'\x00\x00\x00\xe0\xae:S@\x00\x00\x00@U\x03R@\x00\x00\x00\xe0\x9b\xc9H@'
p357
tp358
bag2
(g3
(I0
tp359
g5
tp360
Rp361
(I1
(I3
tp362
g12
I00
S'\x00\x00\x00`\x8d|T@\x00\x00\x00\x00\n:P@\x00\x00\x00\xe06\x18K@'
p363
tp364
bag2
(g3
(I0
tp365
g5
tp366
Rp367
(I1
(I3
tp368
g12
I00
S'\x00\x00\x00\xe0\xb0\x98U@\x00\x00\x00\x00DCM@\x00\x00\x00`\xd9\xf2I@'
p369
tp370
bag2
(g3
(I0
tp371
g5
tp372
Rp373
(I1
(I3
tp374
g12
I00
S'\x00\x00\x00\xe0\x11"V@\x00\x00\x00`=0N@\x00\x00\x00\xa0\x15\x14J@'
p375
tp376
bag2
(g3
(I0
tp377
g5
tp378
Rp379
(I1
(I3
tp380
g12
I00
S'\x00\x00\x00\x80\x8a\x12X@\x00\x00\x00\xc0\xe6\xcfQ@\x00\x00\x00\xe0\xe4\x00K@'
p381
tp382
bag2
(g3
(I0
tp383
g5
tp384
Rp385
(I1
(I3
tp386
g12
I00
S'\x00\x00\x00\x80\xc6DV@\x00\x00\x00`\xdf\x95R@\x00\x00\x00\xe0\\LM@'
p387
tp388
bag2
(g3
(I0
tp389
g5
tp390
Rp391
(I1
(I3
tp392
g12
I00
S'\x00\x00\x00\x80\x07HV@\x00\x00\x00 \x85\x86S@\x00\x00\x00\xa0\x86LO@'
p393
tp394
bag2
(g3
(I0
tp395
g5
tp396
Rp397
(I1
(I3
tp398
g12
I00
S'\x00\x00\x00`G\xb9T@\x00\x00\x00@\xd6/S@\x00\x00\x00@\xfc\xe5P@'
p399
tp400
bag2
(g3
(I0
tp401
g5
tp402
Rp403
(I1
(I3
tp404
g12
I00
S'\x00\x00\x00\xa0\xb3sT@\x00\x00\x00@\r\xabQ@\x00\x00\x00 )wR@'
p405
tp406
bag2
(g3
(I0
tp407
g5
tp408
Rp409
(I1
(I3
tp410
g12
I00
S'\x00\x00\x00\x80o\x97T@\x00\x00\x00\xe0\xea\xd9P@\x00\x00\x00\x00\xfb\x95Q@'
p411
tp412
bag2
(g3
(I0
tp413
g5
tp414
Rp415
(I1
(I3
tp416
g12
I00
S'\x00\x00\x00\xc0\xf6\x7fT@\x00\x00\x00\xa0\xea\xadN@\x00\x00\x00@e\rR@'
p417
tp418
bag2
(g3
(I0
tp419
g5
tp420
Rp421
(I1
(I3
tp422
g12
I00
S'\x00\x00\x00\x00\xa0DT@\x00\x00\x00 \xcb\xc1K@\x00\x00\x00@\n\x8fP@'
p423
tp424
bag2
(g3
(I0
tp425
g5
tp426
Rp427
(I1
(I3
tp428
g12
I00
S'\x00\x00\x00`\x92\x13T@\x00\x00\x00\xe0\x9blI@\x00\x00\x00\xa0\x9f-Q@'
p429
tp430
baa(lp431
I15
aI19
aI43
aI51
aI417
aI384
aI421
aI427
aI428
aI429
aI442
aI447
aI448
aI451
aI125
aI223
aa.